(lp1
(iProducts.DataCollector.plugins.DataMaps
RelationshipMap
p2
(dp3
S'maps'
p4
(lp5
(iProducts.DataCollector.plugins.DataMaps
ObjectMap
p6
(dp7
S'adminStatus'
p8
I1
sS'snmpindex_dct'
p9
(dp10
S'1.3.6.1.4.1.9.9.46.1.3.1.1'
p11
S'1'
ssS'classname'
p12
S''
sS'setVSANNames'
p13
(lp14
sS'speed'
p15
L999999955L
sS'id'
p16
S'Vlan1'
p17
sS'vlan_id'
p18
I1
sS'oper_status_cause'
p19
S'n/a'
p20
sS'title'
p21
g17
sS'duplex'
p22
I0
sS'setIpAddresses'
p23
(lp24
S'10.171.10.107/24'
p25
asS'type'
p26
S'propVirtual_64'
p27
sS'_attrs'
p28
(lp29
g8
aS'macaddress'
p30
aS'description'
p31
aS'operStatus'
p32
ag15
aS'mtu'
p33
ag22
aS'hcCounters'
p34
aS'ifindex'
p35
ag26
ag16
aS'compname'
p36
aS'modname'
p37
ag12
aS'interfaceName'
p38
ag21
ag23
aS'admin_status'
p39
aS'oper_status'
p40
ag19
aS'setVLANNames'
p41
ag13
ag18
ag9
aS'l2_status'
p42
asg31
S''
sg41
(lp43
sg40
S'up'
p44
sg36
S'os'
p45
sg42
S'operational'
p46
sg30
S'2C:36:F8:7B:65:40'
p47
sg37
S'ZenPacks.zenoss.CiscoMonitor.VLAN'
p48
sg38
g17
sg32
I1
sg39
g44
sg33
I1500
sg35
I1
sba(iProducts.DataCollector.plugins.DataMaps
ObjectMap
p49
(dp50
g8
I1
sg12
S''
sg13
(lp51
sg15
L10000660L
sg16
S'GigabitEthernet0_41'
p52
sg19
g20
sg21
S'GigabitEthernet0/41'
p53
sg22
I1
sg23
(lp54
sg26
S'ethernetCsmacd_64'
p55
sg28
(lp56
g8
ag30
ag31
ag32
ag15
ag33
ag22
ag34
ag35
ag26
ag16
ag36
ag37
ag12
ag38
ag21
ag23
ag39
ag40
ag19
aS'setModuleSNMPIndex'
p57
ag41
ag13
asg31
S''
sg41
(lp58
g17
asg40
S'down'
p59
sg36
g45
sg30
S'2C:36:F8:7B:65:29'
p60
sg37
S'ZenPacks.zenoss.CiscoMonitor.EthernetInterface'
p61
sg38
g53
sg57
S'1002'
p62
sg32
I2
sg39
g44
sg33
I1500
sg35
I10141
sba(iProducts.DataCollector.plugins.DataMaps
ObjectMap
p63
(dp64
g8
I1
sg12
S''
sg13
(lp65
sg15
L9999732L
sg16
S'GigabitEthernet0_40'
p66
sg19
g20
sg21
S'GigabitEthernet0/40'
p67
sg22
I1
sg23
(lp68
sg26
S'ethernetCsmacd_64'
p69
sg28
(lp70
g8
ag30
ag31
ag32
ag15
ag33
ag22
ag34
ag35
ag26
ag16
ag36
ag37
ag12
ag38
ag21
ag23
ag39
ag40
ag19
ag57
ag41
ag13
asg31
S''
sg41
(lp71
g17
asg40
g59
sg36
g45
sg30
S'2C:36:F8:7B:65:28'
p72
sg37
S'ZenPacks.zenoss.CiscoMonitor.EthernetInterface'
p73
sg38
g67
sg57
S'1002'
p74
sg32
I2
sg39
g44
sg33
I1500
sg35
I10140
sba(iProducts.DataCollector.plugins.DataMaps
ObjectMap
p75
(dp76
g8
I1
sg12
S''
sg13
(lp77
sg15
L999999949L
sg16
S'GigabitEthernet0_43'
p78
sg19
g20
sg21
S'GigabitEthernet0/43'
p79
sg22
I3
sg23
(lp80
sg26
S'ethernetCsmacd_64'
p81
sg28
(lp82
g8
ag30
ag31
ag32
ag15
ag33
ag22
ag34
ag35
ag26
ag16
ag36
ag37
ag12
ag38
ag21
ag23
ag39
ag40
ag19
ag57
ag41
ag13
asg31
S''
sg41
(lp83
g17
asg40
g44
sg36
g45
sg30
S'2C:36:F8:7B:65:2B'
p84
sg37
S'ZenPacks.zenoss.CiscoMonitor.EthernetInterface'
p85
sg38
g79
sg57
S'1002'
p86
sg32
I1
sg39
g44
sg33
I1500
sg35
I10143
sba(iProducts.DataCollector.plugins.DataMaps
ObjectMap
p87
(dp88
g8
I1
sg12
S''
sg13
(lp89
sg15
L99999907L
sg16
S'GigabitEthernet0_42'
p90
sg19
g20
sg21
S'GigabitEthernet0/42'
p91
sg22
I1
sg23
(lp92
sg26
S'ethernetCsmacd_64'
p93
sg28
(lp94
g8
ag30
ag31
ag32
ag15
ag33
ag22
ag34
ag35
ag26
ag16
ag36
ag37
ag12
ag38
ag21
ag23
ag39
ag40
ag19
ag57
ag41
ag13
asg31
S''
sg41
(lp95
g17
asg40
g59
sg36
g45
sg30
S'2C:36:F8:7B:65:2A'
p96
sg37
S'ZenPacks.zenoss.CiscoMonitor.EthernetInterface'
p97
sg38
g91
sg57
S'1002'
p98
sg32
I2
sg39
g44
sg33
I1500
sg35
I10142
sba(iProducts.DataCollector.plugins.DataMaps
ObjectMap
p99
(dp100
g8
I1
sg12
S''
sg13
(lp101
sg15
L9999756L
sg16
S'GigabitEthernet0_45'
p102
sg19
g20
sg21
S'GigabitEthernet0/45'
p103
sg22
I1
sg23
(lp104
sg26
S'ethernetCsmacd_64'
p105
sg28
(lp106
g8
ag30
ag31
ag32
ag15
ag33
ag22
ag34
ag35
ag26
ag16
ag36
ag37
ag12
ag38
ag21
ag23
ag39
ag40
ag19
ag57
ag41
ag13
asg31
S''
sg41
(lp107
g17
asg40
g59
sg36
g45
sg30
S'2C:36:F8:7B:65:2D'
p108
sg37
S'ZenPacks.zenoss.CiscoMonitor.EthernetInterface'
p109
sg38
g103
sg57
S'1002'
p110
sg32
I2
sg39
g44
sg33
I1500
sg35
I10145
sba(iProducts.DataCollector.plugins.DataMaps
ObjectMap
p111
(dp112
g8
I1
sg12
S''
sg13
(lp113
sg15
L1000000254L
sg16
S'GigabitEthernet0_44'
p114
sg19
g20
sg21
S'GigabitEthernet0/44'
p115
sg22
I3
sg23
(lp116
sg26
S'ethernetCsmacd_64'
p117
sg28
(lp118
g8
ag30
ag31
ag32
ag15
ag33
ag22
ag34
ag35
ag26
ag16
ag36
ag37
ag12
ag38
ag21
ag23
ag39
ag40
ag19
ag57
ag41
ag13
asg31
S'to 10.87.207.1 router'
p119
sg41
(lp120
g17
asg40
g44
sg36
g45
sg30
S'2C:36:F8:7B:65:2C'
p121
sg37
S'ZenPacks.zenoss.CiscoMonitor.EthernetInterface'
p122
sg38
g115
sg57
S'1002'
p123
sg32
I1
sg39
g44
sg33
I1500
sg35
I10144
sba(iProducts.DataCollector.plugins.DataMaps
ObjectMap
p124
(dp125
g8
I1
sg12
S''
sg13
(lp126
sg15
L9999840L
sg16
S'GigabitEthernet0_47'
p127
sg19
g20
sg21
S'GigabitEthernet0/47'
p128
sg22
I1
sg23
(lp129
sg26
S'ethernetCsmacd_64'
p130
sg28
(lp131
g8
ag30
ag31
ag32
ag15
ag33
ag22
ag34
ag35
ag26
ag16
ag36
ag37
ag12
ag38
ag21
ag23
ag39
ag40
ag19
ag57
ag41
ag13
asg31
S''
sg41
(lp132
g17
asg40
g59
sg36
g45
sg30
S'2C:36:F8:7B:65:2F'
p133
sg37
S'ZenPacks.zenoss.CiscoMonitor.EthernetInterface'
p134
sg38
g128
sg57
S'1002'
p135
sg32
I2
sg39
g44
sg33
I1500
sg35
I10147
sba(iProducts.DataCollector.plugins.DataMaps
ObjectMap
p136
(dp137
g8
I1
sg12
S''
sg13
(lp138
sg15
L9999798L
sg16
S'GigabitEthernet0_46'
p139
sg19
g20
sg21
S'GigabitEthernet0/46'
p140
sg22
I1
sg23
(lp141
sg26
S'ethernetCsmacd_64'
p142
sg28
(lp143
g8
ag30
ag31
ag32
ag15
ag33
ag22
ag34
ag35
ag26
ag16
ag36
ag37
ag12
ag38
ag21
ag23
ag39
ag40
ag19
ag57
ag41
ag13
asg31
S''
sg41
(lp144
g17
asg40
g59
sg36
g45
sg30
S'2C:36:F8:7B:65:2E'
p145
sg37
S'ZenPacks.zenoss.CiscoMonitor.EthernetInterface'
p146
sg38
g140
sg57
S'1002'
p147
sg32
I2
sg39
g44
sg33
I1500
sg35
I10146
sba(iProducts.DataCollector.plugins.DataMaps
ObjectMap
p148
(dp149
g8
I1
sg12
S''
sg13
(lp150
sg15
L10000009L
sg16
S'GigabitEthernet0_48'
p151
sg19
g20
sg21
S'GigabitEthernet0/48'
p152
sg22
I1
sg23
(lp153
sg26
S'ethernetCsmacd_64'
p154
sg28
(lp155
g8
ag30
ag31
ag32
ag15
ag33
ag22
ag34
ag35
ag26
ag16
ag36
ag37
ag12
ag38
ag21
ag23
ag39
ag40
ag19
ag57
ag41
ag13
asg31
S''
sg41
(lp156
g17
asg40
g59
sg36
g45
sg30
S'2C:36:F8:7B:65:30'
p157
sg37
S'ZenPacks.zenoss.CiscoMonitor.EthernetInterface'
p158
sg38
g152
sg57
S'1002'
p159
sg32
I2
sg39
g44
sg33
I1500
sg35
I10148
sba(iProducts.DataCollector.plugins.DataMaps
ObjectMap
p160
(dp161
g8
I1
sg12
S''
sg13
(lp162
sg15
L10000174L
sg16
S'GigabitEthernet0_23'
p163
sg19
g20
sg21
S'GigabitEthernet0/23'
p164
sg22
I1
sg23
(lp165
sg26
S'ethernetCsmacd_64'
p166
sg28
(lp167
g8
ag30
ag31
ag32
ag15
ag33
ag22
ag34
ag35
ag26
ag16
ag36
ag37
ag12
ag38
ag21
ag23
ag39
ag40
ag19
ag57
ag41
ag13
asg31
S''
sg41
(lp168
g17
asg40
g59
sg36
g45
sg30
S'2C:36:F8:7B:65:17'
p169
sg37
S'ZenPacks.zenoss.CiscoMonitor.EthernetInterface'
p170
sg38
g164
sg57
S'1002'
p171
sg32
I2
sg39
g44
sg33
I1500
sg35
I10123
sba(iProducts.DataCollector.plugins.DataMaps
ObjectMap
p172
(dp173
g8
I1
sg12
S''
sg13
(lp174
sg15
L1000000283L
sg16
S'GigabitEthernet0_29'
p175
sg19
g20
sg21
S'GigabitEthernet0/29'
p176
sg22
I3
sg23
(lp177
sg26
S'ethernetCsmacd_64'
p178
sg28
(lp179
g8
ag30
ag31
ag32
ag15
ag33
ag22
ag34
ag35
ag26
ag16
ag36
ag37
ag12
ag38
ag21
ag23
ag39
ag40
ag19
ag57
ag41
ag13
asg31
S''
sg41
(lp180
g17
asg40
g44
sg36
g45
sg30
S'2C:36:F8:7B:65:1D'
p181
sg37
S'ZenPacks.zenoss.CiscoMonitor.EthernetInterface'
p182
sg38
g176
sg57
S'1002'
p183
sg32
I1
sg39
g44
sg33
I1500
sg35
I10129
sba(iProducts.DataCollector.plugins.DataMaps
ObjectMap
p184
(dp185
g8
I1
sg12
S''
sg13
(lp186
sg15
L9999894L
sg16
S'GigabitEthernet0_28'
p187
sg19
g20
sg21
S'GigabitEthernet0/28'
p188
sg22
I1
sg23
(lp189
sg26
S'ethernetCsmacd_64'
p190
sg28
(lp191
g8
ag30
ag31
ag32
ag15
ag33
ag22
ag34
ag35
ag26
ag16
ag36
ag37
ag12
ag38
ag21
ag23
ag39
ag40
ag19
ag57
ag41
ag13
asg31
S''
sg41
(lp192
g17
asg40
g59
sg36
g45
sg30
S'2C:36:F8:7B:65:1C'
p193
sg37
S'ZenPacks.zenoss.CiscoMonitor.EthernetInterface'
p194
sg38
g188
sg57
S'1002'
p195
sg32
I2
sg39
g44
sg33
I1500
sg35
I10128
sba(iProducts.DataCollector.plugins.DataMaps
ObjectMap
p196
(dp197
g8
I1
sg12
S''
sg13
(lp198
sg15
L999999634L
sg16
S'GigabitEthernet0_9'
p199
sg19
g20
sg21
S'GigabitEthernet0/9'
p200
sg22
I3
sg23
(lp201
sg26
S'ethernetCsmacd_64'
p202
sg28
(lp203
g8
ag30
ag31
ag32
ag15
ag33
ag22
ag34
ag35
ag26
ag16
ag36
ag37
ag12
ag38
ag21
ag23
ag39
ag40
ag19
ag57
ag41
ag13
asg31
S''
sg41
(lp204
g17
asg40
g44
sg36
g45
sg30
S'2C:36:F8:7B:65:09'
p205
sg37
S'ZenPacks.zenoss.CiscoMonitor.EthernetInterface'
p206
sg38
g200
sg57
S'1002'
p207
sg32
I1
sg39
g44
sg33
I1500
sg35
I10109
sba(iProducts.DataCollector.plugins.DataMaps
ObjectMap
p208
(dp209
g8
I1
sg12
S''
sg13
(lp210
sg15
L9999874L
sg16
S'GigabitEthernet0_8'
p211
sg19
g20
sg21
S'GigabitEthernet0/8'
p212
sg22
I1
sg23
(lp213
sg26
S'ethernetCsmacd_64'
p214
sg28
(lp215
g8
ag30
ag31
ag32
ag15
ag33
ag22
ag34
ag35
ag26
ag16
ag36
ag37
ag12
ag38
ag21
ag23
ag39
ag40
ag19
ag57
ag41
ag13
asg31
S''
sg41
(lp216
g17
asg40
g59
sg36
g45
sg30
S'2C:36:F8:7B:65:08'
p217
sg37
S'ZenPacks.zenoss.CiscoMonitor.EthernetInterface'
p218
sg38
g212
sg57
S'1002'
p219
sg32
I2
sg39
g44
sg33
I1500
sg35
I10108
sba(iProducts.DataCollector.plugins.DataMaps
ObjectMap
p220
(dp221
g8
I1
sg12
S''
sg13
(lp222
sg15
L10000204L
sg16
S'GigabitEthernet0_22'
p223
sg19
g20
sg21
S'GigabitEthernet0/22'
p224
sg22
I1
sg23
(lp225
sg26
S'ethernetCsmacd_64'
p226
sg28
(lp227
g8
ag30
ag31
ag32
ag15
ag33
ag22
ag34
ag35
ag26
ag16
ag36
ag37
ag12
ag38
ag21
ag23
ag39
ag40
ag19
ag57
ag41
ag13
asg31
S''
sg41
(lp228
g17
asg40
g59
sg36
g45
sg30
S'2C:36:F8:7B:65:16'
p229
sg37
S'ZenPacks.zenoss.CiscoMonitor.EthernetInterface'
p230
sg38
g224
sg57
S'1002'
p231
sg32
I2
sg39
g44
sg33
I1500
sg35
I10122
sba(iProducts.DataCollector.plugins.DataMaps
ObjectMap
p232
(dp233
g8
I1
sg12
S''
sg13
(lp234
sg15
L1000000188L
sg16
S'GigabitEthernet0_5'
p235
sg19
g20
sg21
S'GigabitEthernet0/5'
p236
sg22
I3
sg23
(lp237
sg26
S'ethernetCsmacd_64'
p238
sg28
(lp239
g8
ag30
ag31
ag32
ag15
ag33
ag22
ag34
ag35
ag26
ag16
ag36
ag37
ag12
ag38
ag21
ag23
ag39
ag40
ag19
ag57
ag41
ag13
asg31
S''
sg41
(lp240
g17
asg40
g44
sg36
g45
sg30
S'2C:36:F8:7B:65:05'
p241
sg37
S'ZenPacks.zenoss.CiscoMonitor.EthernetInterface'
p242
sg38
g236
sg57
S'1002'
p243
sg32
I1
sg39
g44
sg33
I1500
sg35
I10105
sba(iProducts.DataCollector.plugins.DataMaps
ObjectMap
p244
(dp245
g8
I1
sg12
S''
sg13
(lp246
sg15
L1000000069L
sg16
S'GigabitEthernet0_4'
p247
sg19
g20
sg21
S'GigabitEthernet0/4'
p248
sg22
I3
sg23
(lp249
sg26
S'ethernetCsmacd_64'
p250
sg28
(lp251
g8
ag30
ag31
ag32
ag15
ag33
ag22
ag34
ag35
ag26
ag16
ag36
ag37
ag12
ag38
ag21
ag23
ag39
ag40
ag19
ag57
ag41
ag13
asg31
S''
sg41
(lp252
g17
asg40
g44
sg36
g45
sg30
S'2C:36:F8:7B:65:04'
p253
sg37
S'ZenPacks.zenoss.CiscoMonitor.EthernetInterface'
p254
sg38
g248
sg57
S'1002'
p255
sg32
I1
sg39
g44
sg33
I1500
sg35
I10104
sba(iProducts.DataCollector.plugins.DataMaps
ObjectMap
p256
(dp257
g8
I1
sg12
S''
sg13
(lp258
sg15
L10000177L
sg16
S'GigabitEthernet0_7'
p259
sg19
g20
sg21
S'GigabitEthernet0/7'
p260
sg22
I1
sg23
(lp261
sg26
S'ethernetCsmacd_64'
p262
sg28
(lp263
g8
ag30
ag31
ag32
ag15
ag33
ag22
ag34
ag35
ag26
ag16
ag36
ag37
ag12
ag38
ag21
ag23
ag39
ag40
ag19
ag57
ag41
ag13
asg31
S''
sg41
(lp264
g17
asg40
g59
sg36
g45
sg30
S'2C:36:F8:7B:65:07'
p265
sg37
S'ZenPacks.zenoss.CiscoMonitor.EthernetInterface'
p266
sg38
g260
sg57
S'1002'
p267
sg32
I2
sg39
g44
sg33
I1500
sg35
I10107
sba(iProducts.DataCollector.plugins.DataMaps
ObjectMap
p268
(dp269
g8
I1
sg12
S''
sg13
(lp270
sg15
L9999647L
sg16
S'GigabitEthernet0_20'
p271
sg19
g20
sg21
S'GigabitEthernet0/20'
p272
sg22
I1
sg23
(lp273
sg26
S'ethernetCsmacd_64'
p274
sg28
(lp275
g8
ag30
ag31
ag32
ag15
ag33
ag22
ag34
ag35
ag26
ag16
ag36
ag37
ag12
ag38
ag21
ag23
ag39
ag40
ag19
ag57
ag41
ag13
asg31
S''
sg41
(lp276
g17
asg40
g59
sg36
g45
sg30
S'2C:36:F8:7B:65:14'
p277
sg37
S'ZenPacks.zenoss.CiscoMonitor.EthernetInterface'
p278
sg38
g272
sg57
S'1002'
p279
sg32
I2
sg39
g44
sg33
I1500
sg35
I10120
sba(iProducts.DataCollector.plugins.DataMaps
ObjectMap
p280
(dp281
g8
I1
sg12
S''
sg13
(lp282
sg15
L10000168L
sg16
S'GigabitEthernet0_27'
p283
sg19
g20
sg21
S'GigabitEthernet0/27'
p284
sg22
I1
sg23
(lp285
sg26
S'ethernetCsmacd_64'
p286
sg28
(lp287
g8
ag30
ag31
ag32
ag15
ag33
ag22
ag34
ag35
ag26
ag16
ag36
ag37
ag12
ag38
ag21
ag23
ag39
ag40
ag19
ag57
ag41
ag13
asg31
S''
sg41
(lp288
g17
asg40
g59
sg36
g45
sg30
S'2C:36:F8:7B:65:1B'
p289
sg37
S'ZenPacks.zenoss.CiscoMonitor.EthernetInterface'
p290
sg38
g284
sg57
S'1002'
p291
sg32
I2
sg39
g44
sg33
I1500
sg35
I10127
sba(iProducts.DataCollector.plugins.DataMaps
ObjectMap
p292
(dp293
g8
I1
sg12
S''
sg13
(lp294
sg15
L10000394L
sg16
S'GigabitEthernet0_26'
p295
sg19
g20
sg21
S'GigabitEthernet0/26'
p296
sg22
I1
sg23
(lp297
sg26
S'ethernetCsmacd_64'
p298
sg28
(lp299
g8
ag30
ag31
ag32
ag15
ag33
ag22
ag34
ag35
ag26
ag16
ag36
ag37
ag12
ag38
ag21
ag23
ag39
ag40
ag19
ag57
ag41
ag13
asg31
S''
sg41
(lp300
g17
asg40
g59
sg36
g45
sg30
S'2C:36:F8:7B:65:1A'
p301
sg37
S'ZenPacks.zenoss.CiscoMonitor.EthernetInterface'
p302
sg38
g296
sg57
S'1002'
p303
sg32
I2
sg39
g44
sg33
I1500
sg35
I10126
sba(iProducts.DataCollector.plugins.DataMaps
ObjectMap
p304
(dp305
g8
I1
sg12
S''
sg13
(lp306
sg15
L1000000421L
sg16
S'GigabitEthernet0_25'
p307
sg19
g20
sg21
S'GigabitEthernet0/25'
p308
sg22
I3
sg23
(lp309
sg26
S'ethernetCsmacd_64'
p310
sg28
(lp311
g8
ag30
ag31
ag32
ag15
ag33
ag22
ag34
ag35
ag26
ag16
ag36
ag37
ag12
ag38
ag21
ag23
ag39
ag40
ag19
ag57
ag41
ag13
asg31
S''
sg41
(lp312
g17
asg40
g44
sg36
g45
sg30
S'2C:36:F8:7B:65:19'
p313
sg37
S'ZenPacks.zenoss.CiscoMonitor.EthernetInterface'
p314
sg38
g308
sg57
S'1002'
p315
sg32
I1
sg39
g44
sg33
I1500
sg35
I10125
sba(iProducts.DataCollector.plugins.DataMaps
ObjectMap
p316
(dp317
g8
I1
sg12
S''
sg13
(lp318
sg15
L10000229L
sg16
S'GigabitEthernet0_24'
p319
sg19
g20
sg21
S'GigabitEthernet0/24'
p320
sg22
I1
sg23
(lp321
sg26
S'ethernetCsmacd_64'
p322
sg28
(lp323
g8
ag30
ag31
ag32
ag15
ag33
ag22
ag34
ag35
ag26
ag16
ag36
ag37
ag12
ag38
ag21
ag23
ag39
ag40
ag19
ag57
ag41
ag13
asg31
S''
sg41
(lp324
g17
asg40
g59
sg36
g45
sg30
S'2C:36:F8:7B:65:18'
p325
sg37
S'ZenPacks.zenoss.CiscoMonitor.EthernetInterface'
p326
sg38
g320
sg57
S'1002'
p327
sg32
I2
sg39
g44
sg33
I1500
sg35
I10124
sba(iProducts.DataCollector.plugins.DataMaps
ObjectMap
p328
(dp329
g8
I1
sg12
S''
sg13
(lp330
sg15
L10000152L
sg16
S'GigabitEthernet0_6'
p331
sg19
g20
sg21
S'GigabitEthernet0/6'
p332
sg22
I1
sg23
(lp333
sg26
S'ethernetCsmacd_64'
p334
sg28
(lp335
g8
ag30
ag31
ag32
ag15
ag33
ag22
ag34
ag35
ag26
ag16
ag36
ag37
ag12
ag38
ag21
ag23
ag39
ag40
ag19
ag57
ag41
ag13
asg31
S''
sg41
(lp336
g17
asg40
g59
sg36
g45
sg30
S'2C:36:F8:7B:65:06'
p337
sg37
S'ZenPacks.zenoss.CiscoMonitor.EthernetInterface'
p338
sg38
g332
sg57
S'1002'
p339
sg32
I2
sg39
g44
sg33
I1500
sg35
I10106
sba(iProducts.DataCollector.plugins.DataMaps
ObjectMap
p340
(dp341
g8
I1
sg12
S''
sg13
(lp342
sg15
L34L
sg16
S'Null0'
p343
sg19
g20
sg21
g343
sg22
I0
sg23
(lp344
sg26
S'Other'
p345
sg28
(lp346
g8
ag30
ag31
ag32
ag15
ag33
ag22
ag35
ag26
ag16
ag36
ag37
ag12
ag38
ag21
ag23
ag39
ag40
ag19
ag41
ag13
asg31
S''
sg41
(lp347
sg40
g44
sg36
g45
sg30
S''
sg37
S'ZenPacks.zenoss.CiscoMonitor.Interface'
p348
sg38
g343
sg32
I1
sg39
g44
sg33
I1500
sg35
I10501
sba(iProducts.DataCollector.plugins.DataMaps
ObjectMap
p349
(dp350
g8
I1
sg12
S''
sg13
(lp351
sg15
L999999827L
sg16
S'GigabitEthernet0_1'
p352
sg19
g20
sg21
S'GigabitEthernet0/1'
p353
sg22
I3
sg23
(lp354
sg26
S'ethernetCsmacd_64'
p355
sg28
(lp356
g8
ag30
ag31
ag32
ag15
ag33
ag22
ag34
ag35
ag26
ag16
ag36
ag37
ag12
ag38
ag21
ag23
ag39
ag40
ag19
ag57
ag41
ag13
asg31
S''
sg41
(lp357
g17
asg40
g44
sg36
g45
sg30
S'2C:36:F8:7B:65:01'
p358
sg37
S'ZenPacks.zenoss.CiscoMonitor.EthernetInterface'
p359
sg38
g353
sg57
S'1002'
p360
sg32
I1
sg39
g44
sg33
I1500
sg35
I10101
sba(iProducts.DataCollector.plugins.DataMaps
ObjectMap
p361
(dp362
g8
I1
sg12
S''
sg13
(lp363
sg15
L999999676L
sg16
S'GigabitEthernet0_3'
p364
sg19
g20
sg21
S'GigabitEthernet0/3'
p365
sg22
I3
sg23
(lp366
sg26
S'ethernetCsmacd_64'
p367
sg28
(lp368
g8
ag30
ag31
ag32
ag15
ag33
ag22
ag34
ag35
ag26
ag16
ag36
ag37
ag12
ag38
ag21
ag23
ag39
ag40
ag19
ag57
ag41
ag13
asg31
S''
sg41
(lp369
g17
asg40
g44
sg36
g45
sg30
S'2C:36:F8:7B:65:03'
p370
sg37
S'ZenPacks.zenoss.CiscoMonitor.EthernetInterface'
p371
sg38
g365
sg57
S'1002'
p372
sg32
I1
sg39
g44
sg33
I1500
sg35
I10103
sba(iProducts.DataCollector.plugins.DataMaps
ObjectMap
p373
(dp374
g8
I1
sg12
S''
sg13
(lp375
sg15
L1000000202L
sg16
S'GigabitEthernet0_2'
p376
sg19
g20
sg21
S'GigabitEthernet0/2'
p377
sg22
I3
sg23
(lp378
sg26
S'ethernetCsmacd_64'
p379
sg28
(lp380
g8
ag30
ag31
ag32
ag15
ag33
ag22
ag34
ag35
ag26
ag16
ag36
ag37
ag12
ag38
ag21
ag23
ag39
ag40
ag19
ag57
ag41
ag13
asg31
S''
sg41
(lp381
g17
asg40
g44
sg36
g45
sg30
S'2C:36:F8:7B:65:02'
p382
sg37
S'ZenPacks.zenoss.CiscoMonitor.EthernetInterface'
p383
sg38
g377
sg57
S'1002'
p384
sg32
I1
sg39
g44
sg33
I1500
sg35
I10102
sba(iProducts.DataCollector.plugins.DataMaps
ObjectMap
p385
(dp386
g8
I1
sg12
S''
sg13
(lp387
sg15
L100000316L
sg16
S'GigabitEthernet0_34'
p388
sg19
g20
sg21
S'GigabitEthernet0/34'
p389
sg22
I3
sg23
(lp390
sg26
S'ethernetCsmacd_64'
p391
sg28
(lp392
g8
ag30
ag31
ag32
ag15
ag33
ag22
ag34
ag35
ag26
ag16
ag36
ag37
ag12
ag38
ag21
ag23
ag39
ag40
ag19
ag57
ag41
ag13
asg31
S''
sg41
(lp393
g17
asg40
g44
sg36
g45
sg30
S'2C:36:F8:7B:65:22'
p394
sg37
S'ZenPacks.zenoss.CiscoMonitor.EthernetInterface'
p395
sg38
g389
sg57
S'1002'
p396
sg32
I1
sg39
g44
sg33
I1500
sg35
I10134
sba(iProducts.DataCollector.plugins.DataMaps
ObjectMap
p397
(dp398
g8
I1
sg12
S''
sg13
(lp399
sg15
L10000116L
sg16
S'GigabitEthernet0_35'
p400
sg19
g20
sg21
S'GigabitEthernet0/35'
p401
sg22
I1
sg23
(lp402
sg26
S'ethernetCsmacd_64'
p403
sg28
(lp404
g8
ag30
ag31
ag32
ag15
ag33
ag22
ag34
ag35
ag26
ag16
ag36
ag37
ag12
ag38
ag21
ag23
ag39
ag40
ag19
ag57
ag41
ag13
asg31
S''
sg41
(lp405
g17
asg40
g59
sg36
g45
sg30
S'2C:36:F8:7B:65:23'
p406
sg37
S'ZenPacks.zenoss.CiscoMonitor.EthernetInterface'
p407
sg38
g401
sg57
S'1002'
p408
sg32
I2
sg39
g44
sg33
I1500
sg35
I10135
sba(iProducts.DataCollector.plugins.DataMaps
ObjectMap
p409
(dp410
g8
I1
sg12
S''
sg13
(lp411
sg15
L9999888L
sg16
S'GigabitEthernet0_36'
p412
sg19
g20
sg21
S'GigabitEthernet0/36'
p413
sg22
I1
sg23
(lp414
sg26
S'ethernetCsmacd_64'
p415
sg28
(lp416
g8
ag30
ag31
ag32
ag15
ag33
ag22
ag34
ag35
ag26
ag16
ag36
ag37
ag12
ag38
ag21
ag23
ag39
ag40
ag19
ag57
ag41
ag13
asg31
S''
sg41
(lp417
g17
asg40
g59
sg36
g45
sg30
S'2C:36:F8:7B:65:24'
p418
sg37
S'ZenPacks.zenoss.CiscoMonitor.EthernetInterface'
p419
sg38
g413
sg57
S'1002'
p420
sg32
I2
sg39
g44
sg33
I1500
sg35
I10136
sba(iProducts.DataCollector.plugins.DataMaps
ObjectMap
p421
(dp422
g8
I1
sg12
S''
sg13
(lp423
sg15
L10000160L
sg16
S'GigabitEthernet0_37'
p424
sg19
g20
sg21
S'GigabitEthernet0/37'
p425
sg22
I1
sg23
(lp426
sg26
S'ethernetCsmacd_64'
p427
sg28
(lp428
g8
ag30
ag31
ag32
ag15
ag33
ag22
ag34
ag35
ag26
ag16
ag36
ag37
ag12
ag38
ag21
ag23
ag39
ag40
ag19
ag57
ag41
ag13
asg31
S''
sg41
(lp429
g17
asg40
g59
sg36
g45
sg30
S'2C:36:F8:7B:65:25'
p430
sg37
S'ZenPacks.zenoss.CiscoMonitor.EthernetInterface'
p431
sg38
g425
sg57
S'1002'
p432
sg32
I2
sg39
g44
sg33
I1500
sg35
I10137
sba(iProducts.DataCollector.plugins.DataMaps
ObjectMap
p433
(dp434
g8
I1
sg12
S''
sg13
(lp435
sg15
L9999815L
sg16
S'GigabitEthernet0_30'
p436
sg19
g20
sg21
S'GigabitEthernet0/30'
p437
sg22
I1
sg23
(lp438
sg26
S'ethernetCsmacd_64'
p439
sg28
(lp440
g8
ag30
ag31
ag32
ag15
ag33
ag22
ag34
ag35
ag26
ag16
ag36
ag37
ag12
ag38
ag21
ag23
ag39
ag40
ag19
ag57
ag41
ag13
asg31
S''
sg41
(lp441
g17
asg40
g59
sg36
g45
sg30
S'2C:36:F8:7B:65:1E'
p442
sg37
S'ZenPacks.zenoss.CiscoMonitor.EthernetInterface'
p443
sg38
g437
sg57
S'1002'
p444
sg32
I2
sg39
g44
sg33
I1500
sg35
I10130
sba(iProducts.DataCollector.plugins.DataMaps
ObjectMap
p445
(dp446
g8
I1
sg12
S''
sg13
(lp447
sg15
L9999956L
sg16
S'GigabitEthernet0_31'
p448
sg19
g20
sg21
S'GigabitEthernet0/31'
p449
sg22
I1
sg23
(lp450
sg26
S'ethernetCsmacd_64'
p451
sg28
(lp452
g8
ag30
ag31
ag32
ag15
ag33
ag22
ag34
ag35
ag26
ag16
ag36
ag37
ag12
ag38
ag21
ag23
ag39
ag40
ag19
ag57
ag41
ag13
asg31
S''
sg41
(lp453
g17
asg40
g59
sg36
g45
sg30
S'2C:36:F8:7B:65:1F'
p454
sg37
S'ZenPacks.zenoss.CiscoMonitor.EthernetInterface'
p455
sg38
g449
sg57
S'1002'
p456
sg32
I2
sg39
g44
sg33
I1500
sg35
I10131
sba(iProducts.DataCollector.plugins.DataMaps
ObjectMap
p457
(dp458
g8
I1
sg12
S''
sg13
(lp459
sg15
L99999645L
sg16
S'GigabitEthernet0_32'
p460
sg19
g20
sg21
S'GigabitEthernet0/32'
p461
sg22
I1
sg23
(lp462
sg26
S'ethernetCsmacd_64'
p463
sg28
(lp464
g8
ag30
ag31
ag32
ag15
ag33
ag22
ag34
ag35
ag26
ag16
ag36
ag37
ag12
ag38
ag21
ag23
ag39
ag40
ag19
ag57
ag41
ag13
asg31
S''
sg41
(lp465
g17
asg40
g59
sg36
g45
sg30
S'2C:36:F8:7B:65:20'
p466
sg37
S'ZenPacks.zenoss.CiscoMonitor.EthernetInterface'
p467
sg38
g461
sg57
S'1002'
p468
sg32
I2
sg39
g44
sg33
I1500
sg35
I10132
sba(iProducts.DataCollector.plugins.DataMaps
ObjectMap
p469
(dp470
g8
I1
sg12
S''
sg13
(lp471
sg15
L1000000136L
sg16
S'GigabitEthernet0_33'
p472
sg19
g20
sg21
S'GigabitEthernet0/33'
p473
sg22
I3
sg23
(lp474
sg26
S'ethernetCsmacd_64'
p475
sg28
(lp476
g8
ag30
ag31
ag32
ag15
ag33
ag22
ag34
ag35
ag26
ag16
ag36
ag37
ag12
ag38
ag21
ag23
ag39
ag40
ag19
ag57
ag41
ag13
asg31
S''
sg41
(lp477
g17
asg40
g44
sg36
g45
sg30
S'2C:36:F8:7B:65:21'
p478
sg37
S'ZenPacks.zenoss.CiscoMonitor.EthernetInterface'
p479
sg38
g473
sg57
S'1002'
p480
sg32
I1
sg39
g44
sg33
I1500
sg35
I10133
sba(iProducts.DataCollector.plugins.DataMaps
ObjectMap
p481
(dp482
g8
I1
sg12
S''
sg13
(lp483
sg15
L10000112L
sg16
S'GigabitEthernet0_38'
p484
sg19
g20
sg21
S'GigabitEthernet0/38'
p485
sg22
I1
sg23
(lp486
sg26
S'ethernetCsmacd_64'
p487
sg28
(lp488
g8
ag30
ag31
ag32
ag15
ag33
ag22
ag34
ag35
ag26
ag16
ag36
ag37
ag12
ag38
ag21
ag23
ag39
ag40
ag19
ag57
ag41
ag13
asg31
S''
sg41
(lp489
g17
asg40
g59
sg36
g45
sg30
S'2C:36:F8:7B:65:26'
p490
sg37
S'ZenPacks.zenoss.CiscoMonitor.EthernetInterface'
p491
sg38
g485
sg57
S'1002'
p492
sg32
I2
sg39
g44
sg33
I1500
sg35
I10138
sba(iProducts.DataCollector.plugins.DataMaps
ObjectMap
p493
(dp494
g8
I1
sg12
S''
sg13
(lp495
sg15
L10000013L
sg16
S'GigabitEthernet0_39'
p496
sg19
g20
sg21
S'GigabitEthernet0/39'
p497
sg22
I1
sg23
(lp498
sg26
S'ethernetCsmacd_64'
p499
sg28
(lp500
g8
ag30
ag31
ag32
ag15
ag33
ag22
ag34
ag35
ag26
ag16
ag36
ag37
ag12
ag38
ag21
ag23
ag39
ag40
ag19
ag57
ag41
ag13
asg31
S''
sg41
(lp501
g17
asg40
g59
sg36
g45
sg30
S'2C:36:F8:7B:65:27'
p502
sg37
S'ZenPacks.zenoss.CiscoMonitor.EthernetInterface'
p503
sg38
g497
sg57
S'1002'
p504
sg32
I2
sg39
g44
sg33
I1500
sg35
I10139
sba(iProducts.DataCollector.plugins.DataMaps
ObjectMap
p505
(dp506
g8
I1
sg12
S''
sg13
(lp507
sg15
L10000072L
sg16
S'GigabitEthernet0_18'
p508
sg19
g20
sg21
S'GigabitEthernet0/18'
p509
sg22
I1
sg23
(lp510
sg26
S'ethernetCsmacd_64'
p511
sg28
(lp512
g8
ag30
ag31
ag32
ag15
ag33
ag22
ag34
ag35
ag26
ag16
ag36
ag37
ag12
ag38
ag21
ag23
ag39
ag40
ag19
ag57
ag41
ag13
asg31
S''
sg41
(lp513
g17
asg40
g59
sg36
g45
sg30
S'2C:36:F8:7B:65:12'
p514
sg37
S'ZenPacks.zenoss.CiscoMonitor.EthernetInterface'
p515
sg38
g509
sg57
S'1002'
p516
sg32
I2
sg39
g44
sg33
I1500
sg35
I10118
sba(iProducts.DataCollector.plugins.DataMaps
ObjectMap
p517
(dp518
g8
I1
sg12
S''
sg13
(lp519
sg15
L9999863L
sg16
S'GigabitEthernet0_19'
p520
sg19
g20
sg21
S'GigabitEthernet0/19'
p521
sg22
I1
sg23
(lp522
sg26
S'ethernetCsmacd_64'
p523
sg28
(lp524
g8
ag30
ag31
ag32
ag15
ag33
ag22
ag34
ag35
ag26
ag16
ag36
ag37
ag12
ag38
ag21
ag23
ag39
ag40
ag19
ag57
ag41
ag13
asg31
S''
sg41
(lp525
g17
asg40
g59
sg36
g45
sg30
S'2C:36:F8:7B:65:13'
p526
sg37
S'ZenPacks.zenoss.CiscoMonitor.EthernetInterface'
p527
sg38
g521
sg57
S'1002'
p528
sg32
I2
sg39
g44
sg33
I1500
sg35
I10119
sba(iProducts.DataCollector.plugins.DataMaps
ObjectMap
p529
(dp530
g8
I1
sg12
S''
sg13
(lp531
sg15
L9999849L
sg16
S'GigabitEthernet0_16'
p532
sg19
g20
sg21
S'GigabitEthernet0/16'
p533
sg22
I1
sg23
(lp534
sg26
S'ethernetCsmacd_64'
p535
sg28
(lp536
g8
ag30
ag31
ag32
ag15
ag33
ag22
ag34
ag35
ag26
ag16
ag36
ag37
ag12
ag38
ag21
ag23
ag39
ag40
ag19
ag57
ag41
ag13
asg31
S''
sg41
(lp537
g17
asg40
g59
sg36
g45
sg30
S'2C:36:F8:7B:65:10'
p538
sg37
S'ZenPacks.zenoss.CiscoMonitor.EthernetInterface'
p539
sg38
g533
sg57
S'1002'
p540
sg32
I2
sg39
g44
sg33
I1500
sg35
I10116
sba(iProducts.DataCollector.plugins.DataMaps
ObjectMap
p541
(dp542
g8
I1
sg12
S''
sg13
(lp543
sg15
L999999861L
sg16
S'GigabitEthernet0_17'
p544
sg19
g20
sg21
S'GigabitEthernet0/17'
p545
sg22
I3
sg23
(lp546
sg26
S'ethernetCsmacd_64'
p547
sg28
(lp548
g8
ag30
ag31
ag32
ag15
ag33
ag22
ag34
ag35
ag26
ag16
ag36
ag37
ag12
ag38
ag21
ag23
ag39
ag40
ag19
ag57
ag41
ag13
asg31
S''
sg41
(lp549
g17
asg40
g44
sg36
g45
sg30
S'2C:36:F8:7B:65:11'
p550
sg37
S'ZenPacks.zenoss.CiscoMonitor.EthernetInterface'
p551
sg38
g545
sg57
S'1002'
p552
sg32
I1
sg39
g44
sg33
I1500
sg35
I10117
sba(iProducts.DataCollector.plugins.DataMaps
ObjectMap
p553
(dp554
g8
I1
sg12
S''
sg13
(lp555
sg15
L9999701L
sg16
S'GigabitEthernet0_14'
p556
sg19
g20
sg21
S'GigabitEthernet0/14'
p557
sg22
I1
sg23
(lp558
sg26
S'ethernetCsmacd_64'
p559
sg28
(lp560
g8
ag30
ag31
ag32
ag15
ag33
ag22
ag34
ag35
ag26
ag16
ag36
ag37
ag12
ag38
ag21
ag23
ag39
ag40
ag19
ag57
ag41
ag13
asg31
S''
sg41
(lp561
g17
asg40
g59
sg36
g45
sg30
S'2C:36:F8:7B:65:0E'
p562
sg37
S'ZenPacks.zenoss.CiscoMonitor.EthernetInterface'
p563
sg38
g557
sg57
S'1002'
p564
sg32
I2
sg39
g44
sg33
I1500
sg35
I10114
sba(iProducts.DataCollector.plugins.DataMaps
ObjectMap
p565
(dp566
g8
I1
sg12
S''
sg13
(lp567
sg15
L9999452L
sg16
S'GigabitEthernet0_15'
p568
sg19
g20
sg21
S'GigabitEthernet0/15'
p569
sg22
I1
sg23
(lp570
sg26
S'ethernetCsmacd_64'
p571
sg28
(lp572
g8
ag30
ag31
ag32
ag15
ag33
ag22
ag34
ag35
ag26
ag16
ag36
ag37
ag12
ag38
ag21
ag23
ag39
ag40
ag19
ag57
ag41
ag13
asg31
S''
sg41
(lp573
g17
asg40
g59
sg36
g45
sg30
S'2C:36:F8:7B:65:0F'
p574
sg37
S'ZenPacks.zenoss.CiscoMonitor.EthernetInterface'
p575
sg38
g569
sg57
S'1002'
p576
sg32
I2
sg39
g44
sg33
I1500
sg35
I10115
sba(iProducts.DataCollector.plugins.DataMaps
ObjectMap
p577
(dp578
g8
I1
sg12
S''
sg13
(lp579
sg15
L9999813L
sg16
S'GigabitEthernet0_12'
p580
sg19
g20
sg21
S'GigabitEthernet0/12'
p581
sg22
I1
sg23
(lp582
sg26
S'ethernetCsmacd_64'
p583
sg28
(lp584
g8
ag30
ag31
ag32
ag15
ag33
ag22
ag34
ag35
ag26
ag16
ag36
ag37
ag12
ag38
ag21
ag23
ag39
ag40
ag19
ag57
ag41
ag13
asg31
S''
sg41
(lp585
g17
asg40
g59
sg36
g45
sg30
S'2C:36:F8:7B:65:0C'
p586
sg37
S'ZenPacks.zenoss.CiscoMonitor.EthernetInterface'
p587
sg38
g581
sg57
S'1002'
p588
sg32
I2
sg39
g44
sg33
I1500
sg35
I10112
sba(iProducts.DataCollector.plugins.DataMaps
ObjectMap
p589
(dp590
g8
I1
sg12
S''
sg13
(lp591
sg15
L1000000028L
sg16
S'GigabitEthernet0_13'
p592
sg19
g20
sg21
S'GigabitEthernet0/13'
p593
sg22
I3
sg23
(lp594
sg26
S'ethernetCsmacd_64'
p595
sg28
(lp596
g8
ag30
ag31
ag32
ag15
ag33
ag22
ag34
ag35
ag26
ag16
ag36
ag37
ag12
ag38
ag21
ag23
ag39
ag40
ag19
ag57
ag41
ag13
asg31
S''
sg41
(lp597
g17
asg40
g44
sg36
g45
sg30
S'2C:36:F8:7B:65:0D'
p598
sg37
S'ZenPacks.zenoss.CiscoMonitor.EthernetInterface'
p599
sg38
g593
sg57
S'1002'
p600
sg32
I1
sg39
g44
sg33
I1500
sg35
I10113
sba(iProducts.DataCollector.plugins.DataMaps
ObjectMap
p601
(dp602
g8
I1
sg12
S''
sg13
(lp603
sg15
L10000058L
sg16
S'GigabitEthernet0_10'
p604
sg19
g20
sg21
S'GigabitEthernet0/10'
p605
sg22
I1
sg23
(lp606
sg26
S'ethernetCsmacd_64'
p607
sg28
(lp608
g8
ag30
ag31
ag32
ag15
ag33
ag22
ag34
ag35
ag26
ag16
ag36
ag37
ag12
ag38
ag21
ag23
ag39
ag40
ag19
ag57
ag41
ag13
asg31
S''
sg41
(lp609
g17
asg40
g59
sg36
g45
sg30
S'2C:36:F8:7B:65:0A'
p610
sg37
S'ZenPacks.zenoss.CiscoMonitor.EthernetInterface'
p611
sg38
g605
sg57
S'1002'
p612
sg32
I2
sg39
g44
sg33
I1500
sg35
I10110
sba(iProducts.DataCollector.plugins.DataMaps
ObjectMap
p613
(dp614
g8
I1
sg12
S''
sg13
(lp615
sg15
L10000146L
sg16
S'GigabitEthernet0_11'
p616
sg19
g20
sg21
S'GigabitEthernet0/11'
p617
sg22
I1
sg23
(lp618
sg26
S'ethernetCsmacd_64'
p619
sg28
(lp620
g8
ag30
ag31
ag32
ag15
ag33
ag22
ag34
ag35
ag26
ag16
ag36
ag37
ag12
ag38
ag21
ag23
ag39
ag40
ag19
ag57
ag41
ag13
asg31
S''
sg41
(lp621
g17
asg40
g59
sg36
g45
sg30
S'2C:36:F8:7B:65:0B'
p622
sg37
S'ZenPacks.zenoss.CiscoMonitor.EthernetInterface'
p623
sg38
g617
sg57
S'1002'
p624
sg32
I2
sg39
g44
sg33
I1500
sg35
I10111
sba(iProducts.DataCollector.plugins.DataMaps
ObjectMap
p625
(dp626
g8
I1
sg12
S''
sg13
(lp627
sg15
L1000000500L
sg16
S'GigabitEthernet0_21'
p628
sg19
g20
sg21
S'GigabitEthernet0/21'
p629
sg22
I3
sg23
(lp630
sg26
S'ethernetCsmacd_64'
p631
sg28
(lp632
g8
ag30
ag31
ag32
ag15
ag33
ag22
ag34
ag35
ag26
ag16
ag36
ag37
ag12
ag38
ag21
ag23
ag39
ag40
ag19
ag57
ag41
ag13
asg31
S''
sg41
(lp633
g17
asg40
g44
sg36
g45
sg30
S'2C:36:F8:7B:65:15'
p634
sg37
S'ZenPacks.zenoss.CiscoMonitor.EthernetInterface'
p635
sg38
g629
sg57
S'1002'
p636
sg32
I1
sg39
g44
sg33
I1500
sg35
I10121
sbasS'relname'
p637
S'interfaces'
p638
sg36
g45
sS'parentId'
p639
S''
sba.