(lp1
(iProducts.DataCollector.plugins.DataMaps
ObjectMap
p2
(dp3
S'setHWProductKey'
p4
(iProducts.DataCollector.plugins.DataMaps
MultiArgs
p5
(dp6
S'args'
p7
(S'.1.3.6.1.4.1.9.1.697'
p8
S'ciscoSystems'
p9
tp10
sbsS'_attrs'
p11
(lp12
g4
asba(iProducts.DataCollector.plugins.DataMaps
ObjectMap
p13
(dp14
S'setHWSerialNumber'
p15
S'FOC1613X1CT'
p16
sg11
(lp17
g15
asba(iProducts.DataCollector.plugins.DataMaps
ObjectMap
p18
(dp19
S'compname'
p20
S'hw'
p21
sS'totalMemory'
p22
L30098895L
sg11
(lp23
g22
ag20
asba.