(lp1
(iProducts.DataCollector.plugins.DataMaps
RelationshipMap
p2
(dp3
S'maps'
p4
(lp5
(iProducts.DataCollector.plugins.DataMaps
ObjectMap
p6
(dp7
S'non_redundant_reason'
p8
S'n/a'
p9
sS'modname'
p10
S'ZenPacks.zenoss.CiscoMonitor.PowerSupply'
p11
sS'assy_number'
p12
S''
sS'compname'
p13
S'hw'
p14
sS'snmpindex'
p15
S'1003'
p16
sS'software_version'
p17
S''
sS'title'
p18
S'WS-C2960G-48TC-L - Power Supply 0'
p19
sS'current_multiplier'
p20
I1
sS'description'
p21
S'WS-C2960G-48TC-L - Power Supply 0'
p22
sS'serialNumber'
p23
S'ALD1609A2DH'
p24
sS'hardware_version'
p25
S''
sS'assy_revision'
p26
S''
sS'classname'
p27
S''
sS'redundancy_oper_mode'
p28
S'unknown'
p29
sS'tag'
p30
S''
sS'fru'
p31
I00
sS'firmware_version'
p32
S''
sS'assy_clei'
p33
S''
sS'id'
p34
g19
sS'redundancy_mode'
p35
g29
sS'_attrs'
p36
(lp37
g13
ag10
ag27
ag34
ag18
ag15
ag21
ag25
ag32
ag17
ag23
ag30
ag31
ag12
ag26
ag33
ag20
ag35
ag28
ag8
asbasS'relname'
p38
S'powersupplies'
p39
sg13
g14
sS'parentId'
p40
S''
sba.