(lp1
(iProducts.DataCollector.plugins.DataMaps
RelationshipMap
p2
(dp3
S'maps'
p4
(lp5
(iProducts.DataCollector.plugins.DataMaps
ObjectMap
p6
(dp7
S'modname'
p8
S'ZenPacks.zenoss.CiscoMonitor.Fan'
p9
sS'assy_number'
p10
S''
sS'compname'
p11
S'hw'
p12
sS'snmpindex'
p13
S'1004'
p14
sS'software_version'
p15
S''
sS'title'
p16
S'WS-C2960G-48TC-L - Fan 0'
p17
sS'description'
p18
S'WS-C2960G-48TC-L - Fan 0'
p19
sS'serialNumber'
p20
S''
sS'hardware_version'
p21
S''
sS'assy_revision'
p22
S''
sS'classname'
p23
S''
sS'tag'
p24
S''
sS'fru'
p25
I00
sS'fan_tray_status'
p26
S'unknown'
p27
sS'firmware_version'
p28
S''
sS'assy_clei'
p29
S''
sS'id'
p30
g17
sS'_attrs'
p31
(lp32
g11
ag8
ag23
ag30
ag16
ag13
ag18
ag21
ag28
ag15
ag20
ag24
ag25
ag10
ag22
ag29
ag26
asbasS'relname'
p33
S'fans'
p34
sg11
g12
sS'parentId'
p35
S''
sba.