(lp1
(iProducts.DataCollector.plugins.DataMaps
ObjectMap
p2
(dp3
S'modname'
p4
S''
sS'compname'
p5
S''
sS'snmpOid'
p6
S'.1.3.6.1.4.1.9.1.697'
p7
sS'setHWProductKey'
p8
(iProducts.DataCollector.plugins.DataMaps
MultiArgs
p9
(dp10
S'args'
p11
(g7
S'ciscoSystems'
p12
tp13
sbsS'setOSProductKey'
p14
S'IOS 12.2(50)SE5'
p15
sS'classname'
p16
S''
sS'snmpDescr'
p17
S'Cisco IOS Software, C2960 Software (C2960-LANBASEK9-M), Version 12.2(50)SE5, RELEASE SOFTWARE (fc1)\r\nTechnical Support: http://www.cisco.com/techsupport\r\nCopyright (c) 1986-2010 by Cisco Systems, Inc.\r\nCompiled Tue 28-Sep-10 13:44 by prod_rel_team'
p18
sS'_attrs'
p19
(lp20
g17
ag6
ag5
ag4
ag16
ag8
ag14
asba.