(lp1
(iProducts.DataCollector.plugins.DataMaps
RelationshipMap
p2
(dp3
S'maps'
p4
(lp5
(iProducts.DataCollector.plugins.DataMaps
ObjectMap
p6
(dp7
S'snmpindex'
p8
S'1002'
p9
sS'snmpindex_dct'
p10
(dp11
S'1.3.6.1.4.1.9.9.109.1.1.1.1'
p12
S'1'
ssS'classname'
p13
S''
sS'tag'
p14
S''
sS'firmware_version'
p15
S''
sS'id'
p16
S'WS-C2960G-48TC-L - Fixed Module 0'
p17
sS'assy_clei'
p18
S''
sS'slot'
p19
NsS'compname'
p20
S'hw'
p21
sS'title'
p22
g17
sS'current_multiplier'
p23
I1
sS'cooling'
p24
NsS'fru'
p25
I00
sS'_attrs'
p26
(lp27
g20
aS'modname'
p28
ag13
ag16
ag22
ag8
aS'description'
p29
aS'hardware_version'
p30
ag15
aS'software_version'
p31
aS'serialNumber'
p32
ag14
ag25
aS'assy_number'
p33
aS'assy_revision'
p34
ag18
aS'connector_rating'
p35
ag23
ag10
ag24
ag19
asg29
S'WS-C2960G-48TC-L - Fixed Module 0'
p36
sg31
S''
sg34
S''
sg28
S'ZenPacks.zenoss.CiscoMonitor.LineCard'
p37
sg33
S''
sg32
S''
sg30
S''
sg35
Nsba(iProducts.DataCollector.plugins.DataMaps
ObjectMap
p38
(dp39
g28
S'ZenPacks.zenoss.CiscoMonitor.Chassis'
p40
sg33
S''
sg20
g21
sg8
S'1001'
p41
sg31
S'12.2(50)SE5'
p42
sg22
S'module-1'
p43
sg23
I1
sg29
S'WS-C2960G-48TC-L'
p44
sg32
S'FOC1613X1CT'
p45
sg30
S'V06'
p46
sg34
S''
sS'setProductKey'
p47
(iProducts.DataCollector.plugins.DataMaps
MultiArgs
p48
(dp49
S'args'
p50
(S'WS-C2960G-48TC-L'
p51
S'Cisco'
p52
tp53
sbsg13
S''
sg14
S''
sg25
I00
sg35
Nsg15
S'12.2(50)SE5'
p54
sg10
(dp55
g12
S'1'
ssg18
S''
sg16
g43
sg26
(lp56
g20
ag28
ag13
ag16
ag22
ag8
ag29
ag30
ag15
ag31
ag32
ag14
ag25
ag47
ag33
ag34
ag18
ag35
ag23
ag10
asbasS'relname'
p57
S'cards'
p58
sg20
g21
sS'parentId'
p59
S''
sba.