(lp1
(iProducts.DataCollector.plugins.DataMaps
RelationshipMap
p2
(dp3
S'maps'
p4
(lp5
(iProducts.DataCollector.plugins.DataMaps
ObjectMap
p6
(dp7
S'modname'
p8
S'Products.ZenModel.IpRouteEntry'
p9
sS'compname'
p10
S'os'
p11
sS'setTarget'
p12
S'100.201.236.0/24'
p13
sS'metric1'
p14
I0
sS'setInterfaceIndex'
p15
I0
sS'classname'
p16
S''
sS'routemask'
p17
I24
sS'routeproto'
p18
S'local'
p19
sS'setNextHopIp'
p20
S'100.200.1.61'
p21
sS'id'
p22
S'100.201.236.0_24'
p23
sS'routetype'
p24
S'indirect'
p25
sS'_attrs'
p26
(lp27
g14
ag15
ag17
ag18
ag20
ag22
ag24
ag10
ag8
ag16
ag12
asba(iProducts.DataCollector.plugins.DataMaps
ObjectMap
p28
(dp29
g8
g9
sg10
g11
sg12
S'100.200.2.48/29'
p30
sg14
I0
sg15
I0
sg16
S''
sg17
I29
sg18
g19
sg20
S'100.200.1.17'
p31
sg22
S'100.200.2.48_29'
p32
sg24
g25
sg26
(lp33
g14
ag15
ag17
ag18
ag20
ag22
ag24
ag10
ag8
ag16
ag12
asba(iProducts.DataCollector.plugins.DataMaps
ObjectMap
p34
(dp35
g8
g9
sg10
g11
sg12
S'100.201.160.0/24'
p36
sg14
I0
sg15
I0
sg16
S''
sg17
I24
sg18
g19
sg20
S'100.200.1.61'
p37
sg22
S'100.201.160.0_24'
p38
sg24
g25
sg26
(lp39
g14
ag15
ag17
ag18
ag20
ag22
ag24
ag10
ag8
ag16
ag12
asba(iProducts.DataCollector.plugins.DataMaps
ObjectMap
p40
(dp41
g8
g9
sg10
g11
sg12
S'100.201.71.0/24'
p42
sg14
I0
sg15
I0
sg16
S''
sg17
I24
sg18
g19
sg20
S'100.200.1.61'
p43
sg22
S'100.201.71.0_24'
p44
sg24
g25
sg26
(lp45
g14
ag15
ag17
ag18
ag20
ag22
ag24
ag10
ag8
ag16
ag12
asba(iProducts.DataCollector.plugins.DataMaps
ObjectMap
p46
(dp47
g8
g9
sg10
g11
sg12
S'100.201.184.0/24'
p48
sg14
I0
sg15
I0
sg16
S''
sg17
I24
sg18
g19
sg20
S'100.200.1.61'
p49
sg22
S'100.201.184.0_24'
p50
sg24
g25
sg26
(lp51
g14
ag15
ag17
ag18
ag20
ag22
ag24
ag10
ag8
ag16
ag12
asba(iProducts.DataCollector.plugins.DataMaps
ObjectMap
p52
(dp53
g8
g9
sg10
g11
sg12
S'100.201.248.0/24'
p54
sg14
I0
sg15
I0
sg16
S''
sg17
I24
sg18
g19
sg20
S'100.200.1.61'
p55
sg22
S'100.201.248.0_24'
p56
sg24
g25
sg26
(lp57
g14
ag15
ag17
ag18
ag20
ag22
ag24
ag10
ag8
ag16
ag12
asba(iProducts.DataCollector.plugins.DataMaps
ObjectMap
p58
(dp59
g8
g9
sg10
g11
sg12
S'100.201.193.0/24'
p60
sg14
I0
sg15
I0
sg16
S''
sg17
I24
sg18
g19
sg20
S'100.200.1.61'
p61
sg22
S'100.201.193.0_24'
p62
sg24
g25
sg26
(lp63
g14
ag15
ag17
ag18
ag20
ag22
ag24
ag10
ag8
ag16
ag12
asba(iProducts.DataCollector.plugins.DataMaps
ObjectMap
p64
(dp65
g8
g9
sg10
g11
sg12
S'100.201.105.0/24'
p66
sg14
I0
sg15
I0
sg16
S''
sg17
I24
sg18
g19
sg20
S'100.200.1.61'
p67
sg22
S'100.201.105.0_24'
p68
sg24
g25
sg26
(lp69
g14
ag15
ag17
ag18
ag20
ag22
ag24
ag10
ag8
ag16
ag12
asba(iProducts.DataCollector.plugins.DataMaps
ObjectMap
p70
(dp71
g8
g9
sg10
g11
sg12
S'100.201.137.0/24'
p72
sg14
I0
sg15
I0
sg16
S''
sg17
I24
sg18
g19
sg20
S'100.200.1.61'
p73
sg22
S'100.201.137.0_24'
p74
sg24
g25
sg26
(lp75
g14
ag15
ag17
ag18
ag20
ag22
ag24
ag10
ag8
ag16
ag12
asba(iProducts.DataCollector.plugins.DataMaps
ObjectMap
p76
(dp77
g8
g9
sg10
g11
sg12
S'100.201.158.0/24'
p78
sg14
I0
sg15
I0
sg16
S''
sg17
I24
sg18
g19
sg20
S'100.200.1.61'
p79
sg22
S'100.201.158.0_24'
p80
sg24
g25
sg26
(lp81
g14
ag15
ag17
ag18
ag20
ag22
ag24
ag10
ag8
ag16
ag12
asba(iProducts.DataCollector.plugins.DataMaps
ObjectMap
p82
(dp83
g8
g9
sg10
g11
sg12
S'100.201.230.0/24'
p84
sg14
I0
sg15
I0
sg16
S''
sg17
I24
sg18
g19
sg20
S'100.200.1.61'
p85
sg22
S'100.201.230.0_24'
p86
sg24
g25
sg26
(lp87
g14
ag15
ag17
ag18
ag20
ag22
ag24
ag10
ag8
ag16
ag12
asba(iProducts.DataCollector.plugins.DataMaps
ObjectMap
p88
(dp89
g8
g9
sg10
g11
sg12
S'100.201.16.0/24'
p90
sg14
I0
sg15
I0
sg16
S''
sg17
I24
sg18
g19
sg20
S'100.200.1.61'
p91
sg22
S'100.201.16.0_24'
p92
sg24
g25
sg26
(lp93
g14
ag15
ag17
ag18
ag20
ag22
ag24
ag10
ag8
ag16
ag12
asba(iProducts.DataCollector.plugins.DataMaps
ObjectMap
p94
(dp95
g8
g9
sg10
g11
sg12
S'100.201.77.0/24'
p96
sg14
I0
sg15
I0
sg16
S''
sg17
I24
sg18
g19
sg20
S'100.200.1.61'
p97
sg22
S'100.201.77.0_24'
p98
sg24
g25
sg26
(lp99
g14
ag15
ag17
ag18
ag20
ag22
ag24
ag10
ag8
ag16
ag12
asba(iProducts.DataCollector.plugins.DataMaps
ObjectMap
p100
(dp101
g8
g9
sg10
g11
sg12
S'100.201.42.0/24'
p102
sg14
I0
sg15
I0
sg16
S''
sg17
I24
sg18
g19
sg20
S'100.200.1.61'
p103
sg22
S'100.201.42.0_24'
p104
sg24
g25
sg26
(lp105
g14
ag15
ag17
ag18
ag20
ag22
ag24
ag10
ag8
ag16
ag12
asba(iProducts.DataCollector.plugins.DataMaps
ObjectMap
p106
(dp107
g8
g9
sg10
g11
sg12
S'100.201.182.0/24'
p108
sg14
I0
sg15
I0
sg16
S''
sg17
I24
sg18
g19
sg20
S'100.200.1.61'
p109
sg22
S'100.201.182.0_24'
p110
sg24
g25
sg26
(lp111
g14
ag15
ag17
ag18
ag20
ag22
ag24
ag10
ag8
ag16
ag12
asba(iProducts.DataCollector.plugins.DataMaps
ObjectMap
p112
(dp113
g8
g9
sg10
g11
sg12
S'100.201.232.0/24'
p114
sg14
I0
sg15
I0
sg16
S''
sg17
I24
sg18
g19
sg20
S'100.200.1.61'
p115
sg22
S'100.201.232.0_24'
p116
sg24
g25
sg26
(lp117
g14
ag15
ag17
ag18
ag20
ag22
ag24
ag10
ag8
ag16
ag12
asba(iProducts.DataCollector.plugins.DataMaps
ObjectMap
p118
(dp119
g8
g9
sg10
g11
sg12
S'100.201.125.0/24'
p120
sg14
I0
sg15
I0
sg16
S''
sg17
I24
sg18
g19
sg20
S'100.200.1.61'
p121
sg22
S'100.201.125.0_24'
p122
sg24
g25
sg26
(lp123
g14
ag15
ag17
ag18
ag20
ag22
ag24
ag10
ag8
ag16
ag12
asba(iProducts.DataCollector.plugins.DataMaps
ObjectMap
p124
(dp125
g8
g9
sg10
g11
sg12
S'100.201.102.0/24'
p126
sg14
I0
sg15
I0
sg16
S''
sg17
I24
sg18
g19
sg20
S'100.200.1.61'
p127
sg22
S'100.201.102.0_24'
p128
sg24
g25
sg26
(lp129
g14
ag15
ag17
ag18
ag20
ag22
ag24
ag10
ag8
ag16
ag12
asba(iProducts.DataCollector.plugins.DataMaps
ObjectMap
p130
(dp131
g8
g9
sg10
g11
sg12
S'100.201.171.0/24'
p132
sg14
I0
sg15
I0
sg16
S''
sg17
I24
sg18
g19
sg20
S'100.200.1.61'
p133
sg22
S'100.201.171.0_24'
p134
sg24
g25
sg26
(lp135
g14
ag15
ag17
ag18
ag20
ag22
ag24
ag10
ag8
ag16
ag12
asba(iProducts.DataCollector.plugins.DataMaps
ObjectMap
p136
(dp137
g8
g9
sg10
g11
sg12
S'100.201.10.0/24'
p138
sg14
I0
sg15
I0
sg16
S''
sg17
I24
sg18
g19
sg20
S'100.200.1.61'
p139
sg22
S'100.201.10.0_24'
p140
sg24
g25
sg26
(lp141
g14
ag15
ag17
ag18
ag20
ag22
ag24
ag10
ag8
ag16
ag12
asba(iProducts.DataCollector.plugins.DataMaps
ObjectMap
p142
(dp143
g8
g9
sg10
g11
sg12
S'100.201.64.0/24'
p144
sg14
I0
sg15
I0
sg16
S''
sg17
I24
sg18
g19
sg20
S'100.200.1.61'
p145
sg22
S'100.201.64.0_24'
p146
sg24
g25
sg26
(lp147
g14
ag15
ag17
ag18
ag20
ag22
ag24
ag10
ag8
ag16
ag12
asba(iProducts.DataCollector.plugins.DataMaps
ObjectMap
p148
(dp149
g8
g9
sg10
g11
sg12
S'100.201.96.0/24'
p150
sg14
I0
sg15
I0
sg16
S''
sg17
I24
sg18
g19
sg20
S'100.200.1.61'
p151
sg22
S'100.201.96.0_24'
p152
sg24
g25
sg26
(lp153
g14
ag15
ag17
ag18
ag20
ag22
ag24
ag10
ag8
ag16
ag12
asba(iProducts.DataCollector.plugins.DataMaps
ObjectMap
p154
(dp155
g8
g9
sg10
g11
sg12
S'100.201.215.0/24'
p156
sg14
I0
sg15
I0
sg16
S''
sg17
I24
sg18
g19
sg20
S'100.200.1.61'
p157
sg22
S'100.201.215.0_24'
p158
sg24
g25
sg26
(lp159
g14
ag15
ag17
ag18
ag20
ag22
ag24
ag10
ag8
ag16
ag12
asba(iProducts.DataCollector.plugins.DataMaps
ObjectMap
p160
(dp161
g8
g9
sg10
g11
sg12
S'100.201.60.0/24'
p162
sg14
I0
sg15
I0
sg16
S''
sg17
I24
sg18
g19
sg20
S'100.200.1.61'
p163
sg22
S'100.201.60.0_24'
p164
sg24
g25
sg26
(lp165
g14
ag15
ag17
ag18
ag20
ag22
ag24
ag10
ag8
ag16
ag12
asba(iProducts.DataCollector.plugins.DataMaps
ObjectMap
p166
(dp167
g8
g9
sg10
g11
sg12
S'10.5.22.0/24'
p168
sg14
I0
sg15
I0
sg16
S''
sg17
I24
sg18
S'bgp'
p169
sg20
S'100.200.0.5'
p170
sg22
S'10.5.22.0_24'
p171
sg24
g25
sg26
(lp172
g14
ag15
ag17
ag18
ag20
ag22
ag24
ag10
ag8
ag16
ag12
asba(iProducts.DataCollector.plugins.DataMaps
ObjectMap
p173
(dp174
g8
g9
sg10
g11
sg12
S'100.201.195.0/24'
p175
sg14
I0
sg15
I0
sg16
S''
sg17
I24
sg18
g19
sg20
S'100.200.1.61'
p176
sg22
S'100.201.195.0_24'
p177
sg24
g25
sg26
(lp178
g14
ag15
ag17
ag18
ag20
ag22
ag24
ag10
ag8
ag16
ag12
asba(iProducts.DataCollector.plugins.DataMaps
ObjectMap
p179
(dp180
g8
g9
sg10
g11
sg12
S'100.201.29.0/24'
p181
sg14
I0
sg15
I0
sg16
S''
sg17
I24
sg18
g19
sg20
S'100.200.1.61'
p182
sg22
S'100.201.29.0_24'
p183
sg24
g25
sg26
(lp184
g14
ag15
ag17
ag18
ag20
ag22
ag24
ag10
ag8
ag16
ag12
asba(iProducts.DataCollector.plugins.DataMaps
ObjectMap
p185
(dp186
g8
g9
sg10
g11
sg12
S'100.201.212.0/24'
p187
sg14
I0
sg15
I0
sg16
S''
sg17
I24
sg18
g19
sg20
S'100.200.1.61'
p188
sg22
S'100.201.212.0_24'
p189
sg24
g25
sg26
(lp190
g14
ag15
ag17
ag18
ag20
ag22
ag24
ag10
ag8
ag16
ag12
asba(iProducts.DataCollector.plugins.DataMaps
ObjectMap
p191
(dp192
g8
g9
sg10
g11
sg12
S'100.201.80.0/24'
p193
sg14
I0
sg15
I0
sg16
S''
sg17
I24
sg18
g19
sg20
S'100.200.1.61'
p194
sg22
S'100.201.80.0_24'
p195
sg24
g25
sg26
(lp196
g14
ag15
ag17
ag18
ag20
ag22
ag24
ag10
ag8
ag16
ag12
asba(iProducts.DataCollector.plugins.DataMaps
ObjectMap
p197
(dp198
g8
g9
sg10
g11
sg12
S'100.201.114.0/24'
p199
sg14
I0
sg15
I0
sg16
S''
sg17
I24
sg18
g19
sg20
S'100.200.1.61'
p200
sg22
S'100.201.114.0_24'
p201
sg24
g25
sg26
(lp202
g14
ag15
ag17
ag18
ag20
ag22
ag24
ag10
ag8
ag16
ag12
asba(iProducts.DataCollector.plugins.DataMaps
ObjectMap
p203
(dp204
g8
g9
sg10
g11
sg12
S'100.201.115.0/24'
p205
sg14
I0
sg15
I0
sg16
S''
sg17
I24
sg18
g19
sg20
S'100.200.1.61'
p206
sg22
S'100.201.115.0_24'
p207
sg24
g25
sg26
(lp208
g14
ag15
ag17
ag18
ag20
ag22
ag24
ag10
ag8
ag16
ag12
asba(iProducts.DataCollector.plugins.DataMaps
ObjectMap
p209
(dp210
g8
g9
sg10
g11
sg12
S'100.201.244.0/24'
p211
sg14
I0
sg15
I0
sg16
S''
sg17
I24
sg18
g19
sg20
S'100.200.1.61'
p212
sg22
S'100.201.244.0_24'
p213
sg24
g25
sg26
(lp214
g14
ag15
ag17
ag18
ag20
ag22
ag24
ag10
ag8
ag16
ag12
asba(iProducts.DataCollector.plugins.DataMaps
ObjectMap
p215
(dp216
g8
g9
sg10
g11
sg12
S'100.201.44.0/24'
p217
sg14
I0
sg15
I0
sg16
S''
sg17
I24
sg18
g19
sg20
S'100.200.1.61'
p218
sg22
S'100.201.44.0_24'
p219
sg24
g25
sg26
(lp220
g14
ag15
ag17
ag18
ag20
ag22
ag24
ag10
ag8
ag16
ag12
asba(iProducts.DataCollector.plugins.DataMaps
ObjectMap
p221
(dp222
g8
g9
sg10
g11
sg12
S'100.201.75.0/24'
p223
sg14
I0
sg15
I0
sg16
S''
sg17
I24
sg18
g19
sg20
S'100.200.1.61'
p224
sg22
S'100.201.75.0_24'
p225
sg24
g25
sg26
(lp226
g14
ag15
ag17
ag18
ag20
ag22
ag24
ag10
ag8
ag16
ag12
asba(iProducts.DataCollector.plugins.DataMaps
ObjectMap
p227
(dp228
g8
g9
sg10
g11
sg12
S'100.201.63.0/24'
p229
sg14
I0
sg15
I0
sg16
S''
sg17
I24
sg18
g19
sg20
S'100.200.1.61'
p230
sg22
S'100.201.63.0_24'
p231
sg24
g25
sg26
(lp232
g14
ag15
ag17
ag18
ag20
ag22
ag24
ag10
ag8
ag16
ag12
asba(iProducts.DataCollector.plugins.DataMaps
ObjectMap
p233
(dp234
g8
g9
sg10
g11
sg12
S'100.201.239.0/24'
p235
sg14
I0
sg15
I0
sg16
S''
sg17
I24
sg18
g19
sg20
S'100.200.1.61'
p236
sg22
S'100.201.239.0_24'
p237
sg24
g25
sg26
(lp238
g14
ag15
ag17
ag18
ag20
ag22
ag24
ag10
ag8
ag16
ag12
asba(iProducts.DataCollector.plugins.DataMaps
ObjectMap
p239
(dp240
g8
g9
sg10
g11
sg12
S'100.201.180.0/24'
p241
sg14
I0
sg15
I0
sg16
S''
sg17
I24
sg18
g19
sg20
S'100.200.1.61'
p242
sg22
S'100.201.180.0_24'
p243
sg24
g25
sg26
(lp244
g14
ag15
ag17
ag18
ag20
ag22
ag24
ag10
ag8
ag16
ag12
asba(iProducts.DataCollector.plugins.DataMaps
ObjectMap
p245
(dp246
g8
g9
sg10
g11
sg12
S'100.201.120.0/24'
p247
sg14
I0
sg15
I0
sg16
S''
sg17
I24
sg18
g19
sg20
S'100.200.1.61'
p248
sg22
S'100.201.120.0_24'
p249
sg24
g25
sg26
(lp250
g14
ag15
ag17
ag18
ag20
ag22
ag24
ag10
ag8
ag16
ag12
asba(iProducts.DataCollector.plugins.DataMaps
ObjectMap
p251
(dp252
g8
g9
sg10
g11
sg12
S'100.201.41.0/24'
p253
sg14
I0
sg15
I0
sg16
S''
sg17
I24
sg18
g19
sg20
S'100.200.1.61'
p254
sg22
S'100.201.41.0_24'
p255
sg24
g25
sg26
(lp256
g14
ag15
ag17
ag18
ag20
ag22
ag24
ag10
ag8
ag16
ag12
asba(iProducts.DataCollector.plugins.DataMaps
ObjectMap
p257
(dp258
g8
g9
sg10
g11
sg12
S'100.201.214.0/24'
p259
sg14
I0
sg15
I0
sg16
S''
sg17
I24
sg18
g19
sg20
S'100.200.1.61'
p260
sg22
S'100.201.214.0_24'
p261
sg24
g25
sg26
(lp262
g14
ag15
ag17
ag18
ag20
ag22
ag24
ag10
ag8
ag16
ag12
asba(iProducts.DataCollector.plugins.DataMaps
ObjectMap
p263
(dp264
g8
g9
sg10
g11
sg12
S'100.201.50.0/24'
p265
sg14
I0
sg15
I0
sg16
S''
sg17
I24
sg18
g19
sg20
S'100.200.1.61'
p266
sg22
S'100.201.50.0_24'
p267
sg24
g25
sg26
(lp268
g14
ag15
ag17
ag18
ag20
ag22
ag24
ag10
ag8
ag16
ag12
asba(iProducts.DataCollector.plugins.DataMaps
ObjectMap
p269
(dp270
g8
g9
sg10
g11
sg12
S'100.201.36.0/24'
p271
sg14
I0
sg15
I0
sg16
S''
sg17
I24
sg18
g19
sg20
S'100.200.1.61'
p272
sg22
S'100.201.36.0_24'
p273
sg24
g25
sg26
(lp274
g14
ag15
ag17
ag18
ag20
ag22
ag24
ag10
ag8
ag16
ag12
asba(iProducts.DataCollector.plugins.DataMaps
ObjectMap
p275
(dp276
g8
g9
sg10
g11
sg12
S'100.201.201.0/24'
p277
sg14
I0
sg15
I0
sg16
S''
sg17
I24
sg18
g19
sg20
S'100.200.1.61'
p278
sg22
S'100.201.201.0_24'
p279
sg24
g25
sg26
(lp280
g14
ag15
ag17
ag18
ag20
ag22
ag24
ag10
ag8
ag16
ag12
asba(iProducts.DataCollector.plugins.DataMaps
ObjectMap
p281
(dp282
g8
g9
sg10
g11
sg12
S'100.201.128.0/24'
p283
sg14
I0
sg15
I0
sg16
S''
sg17
I24
sg18
g19
sg20
S'100.200.1.61'
p284
sg22
S'100.201.128.0_24'
p285
sg24
g25
sg26
(lp286
g14
ag15
ag17
ag18
ag20
ag22
ag24
ag10
ag8
ag16
ag12
asba(iProducts.DataCollector.plugins.DataMaps
ObjectMap
p287
(dp288
g8
g9
sg10
g11
sg12
S'100.201.72.0/24'
p289
sg14
I0
sg15
I0
sg16
S''
sg17
I24
sg18
g19
sg20
S'100.200.1.61'
p290
sg22
S'100.201.72.0_24'
p291
sg24
g25
sg26
(lp292
g14
ag15
ag17
ag18
ag20
ag22
ag24
ag10
ag8
ag16
ag12
asba(iProducts.DataCollector.plugins.DataMaps
ObjectMap
p293
(dp294
g8
g9
sg10
g11
sg12
S'100.201.167.0/24'
p295
sg14
I0
sg15
I0
sg16
S''
sg17
I24
sg18
g19
sg20
S'100.200.1.61'
p296
sg22
S'100.201.167.0_24'
p297
sg24
g25
sg26
(lp298
g14
ag15
ag17
ag18
ag20
ag22
ag24
ag10
ag8
ag16
ag12
asba(iProducts.DataCollector.plugins.DataMaps
ObjectMap
p299
(dp300
g8
g9
sg10
g11
sg12
S'100.201.98.0/24'
p301
sg14
I0
sg15
I0
sg16
S''
sg17
I24
sg18
g19
sg20
S'100.200.1.61'
p302
sg22
S'100.201.98.0_24'
p303
sg24
g25
sg26
(lp304
g14
ag15
ag17
ag18
ag20
ag22
ag24
ag10
ag8
ag16
ag12
asba(iProducts.DataCollector.plugins.DataMaps
ObjectMap
p305
(dp306
g8
g9
sg10
g11
sg12
S'10.3.91.0/24'
p307
sg14
I0
sg15
I0
sg16
S''
sg17
I24
sg18
g169
sg20
S'100.200.0.5'
p308
sg22
S'10.3.91.0_24'
p309
sg24
g25
sg26
(lp310
g14
ag15
ag17
ag18
ag20
ag22
ag24
ag10
ag8
ag16
ag12
asba(iProducts.DataCollector.plugins.DataMaps
ObjectMap
p311
(dp312
g8
g9
sg10
g11
sg12
S'100.201.65.0/24'
p313
sg14
I0
sg15
I0
sg16
S''
sg17
I24
sg18
g19
sg20
S'100.200.1.61'
p314
sg22
S'100.201.65.0_24'
p315
sg24
g25
sg26
(lp316
g14
ag15
ag17
ag18
ag20
ag22
ag24
ag10
ag8
ag16
ag12
asba(iProducts.DataCollector.plugins.DataMaps
ObjectMap
p317
(dp318
g8
g9
sg10
g11
sg12
S'100.201.55.0/24'
p319
sg14
I0
sg15
I0
sg16
S''
sg17
I24
sg18
g19
sg20
S'100.200.1.61'
p320
sg22
S'100.201.55.0_24'
p321
sg24
g25
sg26
(lp322
g14
ag15
ag17
ag18
ag20
ag22
ag24
ag10
ag8
ag16
ag12
asba(iProducts.DataCollector.plugins.DataMaps
ObjectMap
p323
(dp324
g8
g9
sg10
g11
sg12
S'100.201.199.0/24'
p325
sg14
I0
sg15
I0
sg16
S''
sg17
I24
sg18
g19
sg20
S'100.200.1.61'
p326
sg22
S'100.201.199.0_24'
p327
sg24
g25
sg26
(lp328
g14
ag15
ag17
ag18
ag20
ag22
ag24
ag10
ag8
ag16
ag12
asba(iProducts.DataCollector.plugins.DataMaps
ObjectMap
p329
(dp330
g8
g9
sg10
g11
sg12
S'100.201.27.0/24'
p331
sg14
I0
sg15
I0
sg16
S''
sg17
I24
sg18
g19
sg20
S'100.200.1.61'
p332
sg22
S'100.201.27.0_24'
p333
sg24
g25
sg26
(lp334
g14
ag15
ag17
ag18
ag20
ag22
ag24
ag10
ag8
ag16
ag12
asba(iProducts.DataCollector.plugins.DataMaps
ObjectMap
p335
(dp336
g8
g9
sg10
g11
sg12
S'100.201.109.0/24'
p337
sg14
I0
sg15
I0
sg16
S''
sg17
I24
sg18
g19
sg20
S'100.200.1.61'
p338
sg22
S'100.201.109.0_24'
p339
sg24
g25
sg26
(lp340
g14
ag15
ag17
ag18
ag20
ag22
ag24
ag10
ag8
ag16
ag12
asba(iProducts.DataCollector.plugins.DataMaps
ObjectMap
p341
(dp342
g8
g9
sg10
g11
sg12
S'100.201.205.0/24'
p343
sg14
I0
sg15
I0
sg16
S''
sg17
I24
sg18
g19
sg20
S'100.200.1.61'
p344
sg22
S'100.201.205.0_24'
p345
sg24
g25
sg26
(lp346
g14
ag15
ag17
ag18
ag20
ag22
ag24
ag10
ag8
ag16
ag12
asba(iProducts.DataCollector.plugins.DataMaps
ObjectMap
p347
(dp348
g8
g9
sg10
g11
sg12
S'100.201.134.0/24'
p349
sg14
I0
sg15
I0
sg16
S''
sg17
I24
sg18
g19
sg20
S'100.200.1.61'
p350
sg22
S'100.201.134.0_24'
p351
sg24
g25
sg26
(lp352
g14
ag15
ag17
ag18
ag20
ag22
ag24
ag10
ag8
ag16
ag12
asba(iProducts.DataCollector.plugins.DataMaps
ObjectMap
p353
(dp354
g8
g9
sg10
g11
sg12
S'100.201.79.0/24'
p355
sg14
I0
sg15
I0
sg16
S''
sg17
I24
sg18
g19
sg20
S'100.200.1.61'
p356
sg22
S'100.201.79.0_24'
p357
sg24
g25
sg26
(lp358
g14
ag15
ag17
ag18
ag20
ag22
ag24
ag10
ag8
ag16
ag12
asba(iProducts.DataCollector.plugins.DataMaps
ObjectMap
p359
(dp360
g8
g9
sg10
g11
sg12
S'100.200.2.96/29'
p361
sg14
I0
sg15
I0
sg16
S''
sg17
I29
sg18
g19
sg20
S'100.200.1.29'
p362
sg22
S'100.200.2.96_29'
p363
sg24
g25
sg26
(lp364
g14
ag15
ag17
ag18
ag20
ag22
ag24
ag10
ag8
ag16
ag12
asba(iProducts.DataCollector.plugins.DataMaps
ObjectMap
p365
(dp366
g8
g9
sg10
g11
sg12
S'100.200.1.0/24'
p367
sg14
I0
sg15
I151062480
sg16
S''
sg17
I24
sg18
g19
sg20
S'100.200.1.3'
p368
sg22
S'100.200.1.0_24'
p369
sg24
S'direct'
p370
sg26
(lp371
g14
ag15
ag17
ag18
ag20
ag22
ag24
ag10
ag8
ag16
ag12
asba(iProducts.DataCollector.plugins.DataMaps
ObjectMap
p372
(dp373
g8
g9
sg10
g11
sg12
S'100.201.228.0/24'
p374
sg14
I0
sg15
I0
sg16
S''
sg17
I24
sg18
g19
sg20
S'100.200.1.61'
p375
sg22
S'100.201.228.0_24'
p376
sg24
g25
sg26
(lp377
g14
ag15
ag17
ag18
ag20
ag22
ag24
ag10
ag8
ag16
ag12
asba(iProducts.DataCollector.plugins.DataMaps
ObjectMap
p378
(dp379
g8
g9
sg10
g11
sg12
S'100.201.73.0/24'
p380
sg14
I0
sg15
I0
sg16
S''
sg17
I24
sg18
g19
sg20
S'100.200.1.61'
p381
sg22
S'100.201.73.0_24'
p382
sg24
g25
sg26
(lp383
g14
ag15
ag17
ag18
ag20
ag22
ag24
ag10
ag8
ag16
ag12
asba(iProducts.DataCollector.plugins.DataMaps
ObjectMap
p384
(dp385
g8
g9
sg10
g11
sg12
S'100.201.131.0/24'
p386
sg14
I0
sg15
I0
sg16
S''
sg17
I24
sg18
g19
sg20
S'100.200.1.61'
p387
sg22
S'100.201.131.0_24'
p388
sg24
g25
sg26
(lp389
g14
ag15
ag17
ag18
ag20
ag22
ag24
ag10
ag8
ag16
ag12
asba(iProducts.DataCollector.plugins.DataMaps
ObjectMap
p390
(dp391
g8
g9
sg10
g11
sg12
S'100.201.186.0/24'
p392
sg14
I0
sg15
I0
sg16
S''
sg17
I24
sg18
g19
sg20
S'100.200.1.61'
p393
sg22
S'100.201.186.0_24'
p394
sg24
g25
sg26
(lp395
g14
ag15
ag17
ag18
ag20
ag22
ag24
ag10
ag8
ag16
ag12
asba(iProducts.DataCollector.plugins.DataMaps
ObjectMap
p396
(dp397
g8
g9
sg10
g11
sg12
S'100.201.133.0/24'
p398
sg14
I0
sg15
I0
sg16
S''
sg17
I24
sg18
g19
sg20
S'100.200.1.61'
p399
sg22
S'100.201.133.0_24'
p400
sg24
g25
sg26
(lp401
g14
ag15
ag17
ag18
ag20
ag22
ag24
ag10
ag8
ag16
ag12
asba(iProducts.DataCollector.plugins.DataMaps
ObjectMap
p402
(dp403
g8
g9
sg10
g11
sg12
S'100.201.82.0/24'
p404
sg14
I0
sg15
I0
sg16
S''
sg17
I24
sg18
g19
sg20
S'100.200.1.61'
p405
sg22
S'100.201.82.0_24'
p406
sg24
g25
sg26
(lp407
g14
ag15
ag17
ag18
ag20
ag22
ag24
ag10
ag8
ag16
ag12
asba(iProducts.DataCollector.plugins.DataMaps
ObjectMap
p408
(dp409
g8
g9
sg10
g11
sg12
S'100.201.107.0/24'
p410
sg14
I0
sg15
I0
sg16
S''
sg17
I24
sg18
g19
sg20
S'100.200.1.61'
p411
sg22
S'100.201.107.0_24'
p412
sg24
g25
sg26
(lp413
g14
ag15
ag17
ag18
ag20
ag22
ag24
ag10
ag8
ag16
ag12
asba(iProducts.DataCollector.plugins.DataMaps
ObjectMap
p414
(dp415
g8
g9
sg10
g11
sg12
S'100.201.250.0/24'
p416
sg14
I0
sg15
I0
sg16
S''
sg17
I24
sg18
g19
sg20
S'100.200.1.61'
p417
sg22
S'100.201.250.0_24'
p418
sg24
g25
sg26
(lp419
g14
ag15
ag17
ag18
ag20
ag22
ag24
ag10
ag8
ag16
ag12
asba(iProducts.DataCollector.plugins.DataMaps
ObjectMap
p420
(dp421
g8
g9
sg10
g11
sg12
S'100.201.106.0/24'
p422
sg14
I0
sg15
I0
sg16
S''
sg17
I24
sg18
g19
sg20
S'100.200.1.61'
p423
sg22
S'100.201.106.0_24'
p424
sg24
g25
sg26
(lp425
g14
ag15
ag17
ag18
ag20
ag22
ag24
ag10
ag8
ag16
ag12
asba(iProducts.DataCollector.plugins.DataMaps
ObjectMap
p426
(dp427
g8
g9
sg10
g11
sg12
S'100.201.165.0/24'
p428
sg14
I0
sg15
I0
sg16
S''
sg17
I24
sg18
g19
sg20
S'100.200.1.61'
p429
sg22
S'100.201.165.0_24'
p430
sg24
g25
sg26
(lp431
g14
ag15
ag17
ag18
ag20
ag22
ag24
ag10
ag8
ag16
ag12
asba(iProducts.DataCollector.plugins.DataMaps
ObjectMap
p432
(dp433
g8
g9
sg10
g11
sg12
S'100.201.175.0/24'
p434
sg14
I0
sg15
I0
sg16
S''
sg17
I24
sg18
g19
sg20
S'100.200.1.61'
p435
sg22
S'100.201.175.0_24'
p436
sg24
g25
sg26
(lp437
g14
ag15
ag17
ag18
ag20
ag22
ag24
ag10
ag8
ag16
ag12
asba(iProducts.DataCollector.plugins.DataMaps
ObjectMap
p438
(dp439
g8
g9
sg10
g11
sg12
S'100.201.48.0/24'
p440
sg14
I0
sg15
I0
sg16
S''
sg17
I24
sg18
g19
sg20
S'100.200.1.61'
p441
sg22
S'100.201.48.0_24'
p442
sg24
g25
sg26
(lp443
g14
ag15
ag17
ag18
ag20
ag22
ag24
ag10
ag8
ag16
ag12
asba(iProducts.DataCollector.plugins.DataMaps
ObjectMap
p444
(dp445
g8
g9
sg10
g11
sg12
S'100.201.40.0/24'
p446
sg14
I0
sg15
I0
sg16
S''
sg17
I24
sg18
g19
sg20
S'100.200.1.61'
p447
sg22
S'100.201.40.0_24'
p448
sg24
g25
sg26
(lp449
g14
ag15
ag17
ag18
ag20
ag22
ag24
ag10
ag8
ag16
ag12
asba(iProducts.DataCollector.plugins.DataMaps
ObjectMap
p450
(dp451
g8
g9
sg10
g11
sg12
S'100.201.70.0/24'
p452
sg14
I0
sg15
I0
sg16
S''
sg17
I24
sg18
g19
sg20
S'100.200.1.61'
p453
sg22
S'100.201.70.0_24'
p454
sg24
g25
sg26
(lp455
g14
ag15
ag17
ag18
ag20
ag22
ag24
ag10
ag8
ag16
ag12
asba(iProducts.DataCollector.plugins.DataMaps
ObjectMap
p456
(dp457
g8
g9
sg10
g11
sg12
S'100.201.67.0/24'
p458
sg14
I0
sg15
I0
sg16
S''
sg17
I24
sg18
g19
sg20
S'100.200.1.61'
p459
sg22
S'100.201.67.0_24'
p460
sg24
g25
sg26
(lp461
g14
ag15
ag17
ag18
ag20
ag22
ag24
ag10
ag8
ag16
ag12
asba(iProducts.DataCollector.plugins.DataMaps
ObjectMap
p462
(dp463
g8
g9
sg10
g11
sg12
S'100.201.7.0/24'
p464
sg14
I0
sg15
I0
sg16
S''
sg17
I24
sg18
g19
sg20
S'100.200.1.61'
p465
sg22
S'100.201.7.0_24'
p466
sg24
g25
sg26
(lp467
g14
ag15
ag17
ag18
ag20
ag22
ag24
ag10
ag8
ag16
ag12
asba(iProducts.DataCollector.plugins.DataMaps
ObjectMap
p468
(dp469
g8
g9
sg10
g11
sg12
S'100.201.94.0/24'
p470
sg14
I0
sg15
I0
sg16
S''
sg17
I24
sg18
g19
sg20
S'100.200.1.61'
p471
sg22
S'100.201.94.0_24'
p472
sg24
g25
sg26
(lp473
g14
ag15
ag17
ag18
ag20
ag22
ag24
ag10
ag8
ag16
ag12
asba(iProducts.DataCollector.plugins.DataMaps
ObjectMap
p474
(dp475
g8
g9
sg10
g11
sg12
S'100.201.247.0/24'
p476
sg14
I0
sg15
I0
sg16
S''
sg17
I24
sg18
g19
sg20
S'100.200.1.61'
p477
sg22
S'100.201.247.0_24'
p478
sg24
g25
sg26
(lp479
g14
ag15
ag17
ag18
ag20
ag22
ag24
ag10
ag8
ag16
ag12
asba(iProducts.DataCollector.plugins.DataMaps
ObjectMap
p480
(dp481
g8
g9
sg10
g11
sg12
S'100.201.246.0/24'
p482
sg14
I0
sg15
I0
sg16
S''
sg17
I24
sg18
g19
sg20
S'100.200.1.61'
p483
sg22
S'100.201.246.0_24'
p484
sg24
g25
sg26
(lp485
g14
ag15
ag17
ag18
ag20
ag22
ag24
ag10
ag8
ag16
ag12
asba(iProducts.DataCollector.plugins.DataMaps
ObjectMap
p486
(dp487
g8
g9
sg10
g11
sg12
S'100.201.100.0/24'
p488
sg14
I0
sg15
I0
sg16
S''
sg17
I24
sg18
g19
sg20
S'100.200.1.61'
p489
sg22
S'100.201.100.0_24'
p490
sg24
g25
sg26
(lp491
g14
ag15
ag17
ag18
ag20
ag22
ag24
ag10
ag8
ag16
ag12
asba(iProducts.DataCollector.plugins.DataMaps
ObjectMap
p492
(dp493
g8
g9
sg10
g11
sg12
S'100.201.138.0/24'
p494
sg14
I0
sg15
I0
sg16
S''
sg17
I24
sg18
g19
sg20
S'100.200.1.61'
p495
sg22
S'100.201.138.0_24'
p496
sg24
g25
sg26
(lp497
g14
ag15
ag17
ag18
ag20
ag22
ag24
ag10
ag8
ag16
ag12
asba(iProducts.DataCollector.plugins.DataMaps
ObjectMap
p498
(dp499
g8
g9
sg10
g11
sg12
S'100.200.2.72/29'
p500
sg14
I0
sg15
I0
sg16
S''
sg17
I29
sg18
g19
sg20
S'100.200.1.23'
p501
sg22
S'100.200.2.72_29'
p502
sg24
g25
sg26
(lp503
g14
ag15
ag17
ag18
ag20
ag22
ag24
ag10
ag8
ag16
ag12
asba(iProducts.DataCollector.plugins.DataMaps
ObjectMap
p504
(dp505
g8
g9
sg10
g11
sg12
S'100.201.229.0/24'
p506
sg14
I0
sg15
I0
sg16
S''
sg17
I24
sg18
g19
sg20
S'100.200.1.61'
p507
sg22
S'100.201.229.0_24'
p508
sg24
g25
sg26
(lp509
g14
ag15
ag17
ag18
ag20
ag22
ag24
ag10
ag8
ag16
ag12
asba(iProducts.DataCollector.plugins.DataMaps
ObjectMap
p510
(dp511
g8
g9
sg10
g11
sg12
S'100.201.20.0/24'
p512
sg14
I0
sg15
I0
sg16
S''
sg17
I24
sg18
g19
sg20
S'100.200.1.61'
p513
sg22
S'100.201.20.0_24'
p514
sg24
g25
sg26
(lp515
g14
ag15
ag17
ag18
ag20
ag22
ag24
ag10
ag8
ag16
ag12
asba(iProducts.DataCollector.plugins.DataMaps
ObjectMap
p516
(dp517
g8
g9
sg10
g11
sg12
S'100.201.69.0/24'
p518
sg14
I0
sg15
I0
sg16
S''
sg17
I24
sg18
g19
sg20
S'100.200.1.61'
p519
sg22
S'100.201.69.0_24'
p520
sg24
g25
sg26
(lp521
g14
ag15
ag17
ag18
ag20
ag22
ag24
ag10
ag8
ag16
ag12
asba(iProducts.DataCollector.plugins.DataMaps
ObjectMap
p522
(dp523
g8
g9
sg10
g11
sg12
S'100.201.89.0/24'
p524
sg14
I0
sg15
I0
sg16
S''
sg17
I24
sg18
g19
sg20
S'100.200.1.61'
p525
sg22
S'100.201.89.0_24'
p526
sg24
g25
sg26
(lp527
g14
ag15
ag17
ag18
ag20
ag22
ag24
ag10
ag8
ag16
ag12
asba(iProducts.DataCollector.plugins.DataMaps
ObjectMap
p528
(dp529
g8
g9
sg10
g11
sg12
S'100.201.216.0/24'
p530
sg14
I0
sg15
I0
sg16
S''
sg17
I24
sg18
g19
sg20
S'100.200.1.61'
p531
sg22
S'100.201.216.0_24'
p532
sg24
g25
sg26
(lp533
g14
ag15
ag17
ag18
ag20
ag22
ag24
ag10
ag8
ag16
ag12
asba(iProducts.DataCollector.plugins.DataMaps
ObjectMap
p534
(dp535
g8
g9
sg10
g11
sg12
S'100.201.170.0/24'
p536
sg14
I0
sg15
I0
sg16
S''
sg17
I24
sg18
g19
sg20
S'100.200.1.61'
p537
sg22
S'100.201.170.0_24'
p538
sg24
g25
sg26
(lp539
g14
ag15
ag17
ag18
ag20
ag22
ag24
ag10
ag8
ag16
ag12
asba(iProducts.DataCollector.plugins.DataMaps
ObjectMap
p540
(dp541
g8
g9
sg10
g11
sg12
S'100.201.22.0/24'
p542
sg14
I0
sg15
I0
sg16
S''
sg17
I24
sg18
g19
sg20
S'100.200.1.61'
p543
sg22
S'100.201.22.0_24'
p544
sg24
g25
sg26
(lp545
g14
ag15
ag17
ag18
ag20
ag22
ag24
ag10
ag8
ag16
ag12
asba(iProducts.DataCollector.plugins.DataMaps
ObjectMap
p546
(dp547
g8
g9
sg10
g11
sg12
S'100.200.2.80/29'
p548
sg14
I0
sg15
I0
sg16
S''
sg17
I29
sg18
g19
sg20
S'100.200.1.25'
p549
sg22
S'100.200.2.80_29'
p550
sg24
g25
sg26
(lp551
g14
ag15
ag17
ag18
ag20
ag22
ag24
ag10
ag8
ag16
ag12
asba(iProducts.DataCollector.plugins.DataMaps
ObjectMap
p552
(dp553
g8
g9
sg10
g11
sg12
S'100.201.68.0/24'
p554
sg14
I0
sg15
I0
sg16
S''
sg17
I24
sg18
g19
sg20
S'100.200.1.61'
p555
sg22
S'100.201.68.0_24'
p556
sg24
g25
sg26
(lp557
g14
ag15
ag17
ag18
ag20
ag22
ag24
ag10
ag8
ag16
ag12
asba(iProducts.DataCollector.plugins.DataMaps
ObjectMap
p558
(dp559
g8
g9
sg10
g11
sg12
S'100.201.46.0/24'
p560
sg14
I0
sg15
I0
sg16
S''
sg17
I24
sg18
g19
sg20
S'100.200.1.61'
p561
sg22
S'100.201.46.0_24'
p562
sg24
g25
sg26
(lp563
g14
ag15
ag17
ag18
ag20
ag22
ag24
ag10
ag8
ag16
ag12
asba(iProducts.DataCollector.plugins.DataMaps
ObjectMap
p564
(dp565
g8
g9
sg10
g11
sg12
S'100.201.181.0/24'
p566
sg14
I0
sg15
I0
sg16
S''
sg17
I24
sg18
g19
sg20
S'100.200.1.61'
p567
sg22
S'100.201.181.0_24'
p568
sg24
g25
sg26
(lp569
g14
ag15
ag17
ag18
ag20
ag22
ag24
ag10
ag8
ag16
ag12
asba(iProducts.DataCollector.plugins.DataMaps
ObjectMap
p570
(dp571
g8
g9
sg10
g11
sg12
S'100.201.126.0/24'
p572
sg14
I0
sg15
I0
sg16
S''
sg17
I24
sg18
g19
sg20
S'100.200.1.61'
p573
sg22
S'100.201.126.0_24'
p574
sg24
g25
sg26
(lp575
g14
ag15
ag17
ag18
ag20
ag22
ag24
ag10
ag8
ag16
ag12
asba(iProducts.DataCollector.plugins.DataMaps
ObjectMap
p576
(dp577
g8
g9
sg10
g11
sg12
S'100.200.2.88/29'
p578
sg14
I0
sg15
I0
sg16
S''
sg17
I29
sg18
g19
sg20
S'100.200.1.27'
p579
sg22
S'100.200.2.88_29'
p580
sg24
g25
sg26
(lp581
g14
ag15
ag17
ag18
ag20
ag22
ag24
ag10
ag8
ag16
ag12
asba(iProducts.DataCollector.plugins.DataMaps
ObjectMap
p582
(dp583
g8
g9
sg10
g11
sg12
S'100.201.61.0/24'
p584
sg14
I0
sg15
I0
sg16
S''
sg17
I24
sg18
g19
sg20
S'100.200.1.61'
p585
sg22
S'100.201.61.0_24'
p586
sg24
g25
sg26
(lp587
g14
ag15
ag17
ag18
ag20
ag22
ag24
ag10
ag8
ag16
ag12
asba(iProducts.DataCollector.plugins.DataMaps
ObjectMap
p588
(dp589
g8
g9
sg10
g11
sg12
S'100.201.95.0/24'
p590
sg14
I0
sg15
I0
sg16
S''
sg17
I24
sg18
g19
sg20
S'100.200.1.61'
p591
sg22
S'100.201.95.0_24'
p592
sg24
g25
sg26
(lp593
g14
ag15
ag17
ag18
ag20
ag22
ag24
ag10
ag8
ag16
ag12
asba(iProducts.DataCollector.plugins.DataMaps
ObjectMap
p594
(dp595
g8
g9
sg10
g11
sg12
S'132.1.0.0/16'
p596
sg14
I0
sg15
I0
sg16
S''
sg17
I16
sg18
g169
sg20
S'100.200.0.5'
p597
sg22
S'132.1.0.0_16'
p598
sg24
g25
sg26
(lp599
g14
ag15
ag17
ag18
ag20
ag22
ag24
ag10
ag8
ag16
ag12
asba(iProducts.DataCollector.plugins.DataMaps
ObjectMap
p600
(dp601
g8
g9
sg10
g11
sg12
S'100.201.49.0/24'
p602
sg14
I0
sg15
I0
sg16
S''
sg17
I24
sg18
g19
sg20
S'100.200.1.61'
p603
sg22
S'100.201.49.0_24'
p604
sg24
g25
sg26
(lp605
g14
ag15
ag17
ag18
ag20
ag22
ag24
ag10
ag8
ag16
ag12
asba(iProducts.DataCollector.plugins.DataMaps
ObjectMap
p606
(dp607
g8
g9
sg10
g11
sg12
S'100.201.110.0/24'
p608
sg14
I0
sg15
I0
sg16
S''
sg17
I24
sg18
g19
sg20
S'100.200.1.61'
p609
sg22
S'100.201.110.0_24'
p610
sg24
g25
sg26
(lp611
g14
ag15
ag17
ag18
ag20
ag22
ag24
ag10
ag8
ag16
ag12
asba(iProducts.DataCollector.plugins.DataMaps
ObjectMap
p612
(dp613
g8
g9
sg10
g11
sg12
S'100.201.207.0/24'
p614
sg14
I0
sg15
I0
sg16
S''
sg17
I24
sg18
g19
sg20
S'100.200.1.61'
p615
sg22
S'100.201.207.0_24'
p616
sg24
g25
sg26
(lp617
g14
ag15
ag17
ag18
ag20
ag22
ag24
ag10
ag8
ag16
ag12
asba(iProducts.DataCollector.plugins.DataMaps
ObjectMap
p618
(dp619
g8
g9
sg10
g11
sg12
S'100.201.245.0/24'
p620
sg14
I0
sg15
I0
sg16
S''
sg17
I24
sg18
g19
sg20
S'100.200.1.61'
p621
sg22
S'100.201.245.0_24'
p622
sg24
g25
sg26
(lp623
g14
ag15
ag17
ag18
ag20
ag22
ag24
ag10
ag8
ag16
ag12
asba(iProducts.DataCollector.plugins.DataMaps
ObjectMap
p624
(dp625
g8
g9
sg10
g11
sg12
S'100.201.11.0/24'
p626
sg14
I0
sg15
I0
sg16
S''
sg17
I24
sg18
g19
sg20
S'100.200.1.61'
p627
sg22
S'100.201.11.0_24'
p628
sg24
g25
sg26
(lp629
g14
ag15
ag17
ag18
ag20
ag22
ag24
ag10
ag8
ag16
ag12
asba(iProducts.DataCollector.plugins.DataMaps
ObjectMap
p630
(dp631
g8
g9
sg10
g11
sg12
S'100.201.45.0/24'
p632
sg14
I0
sg15
I0
sg16
S''
sg17
I24
sg18
g19
sg20
S'100.200.1.61'
p633
sg22
S'100.201.45.0_24'
p634
sg24
g25
sg26
(lp635
g14
ag15
ag17
ag18
ag20
ag22
ag24
ag10
ag8
ag16
ag12
asba(iProducts.DataCollector.plugins.DataMaps
ObjectMap
p636
(dp637
g8
g9
sg10
g11
sg12
S'100.201.74.0/24'
p638
sg14
I0
sg15
I0
sg16
S''
sg17
I24
sg18
g19
sg20
S'100.200.1.61'
p639
sg22
S'100.201.74.0_24'
p640
sg24
g25
sg26
(lp641
g14
ag15
ag17
ag18
ag20
ag22
ag24
ag10
ag8
ag16
ag12
asba(iProducts.DataCollector.plugins.DataMaps
ObjectMap
p642
(dp643
g8
g9
sg10
g11
sg12
S'100.201.238.0/24'
p644
sg14
I0
sg15
I0
sg16
S''
sg17
I24
sg18
g19
sg20
S'100.200.1.61'
p645
sg22
S'100.201.238.0_24'
p646
sg24
g25
sg26
(lp647
g14
ag15
ag17
ag18
ag20
ag22
ag24
ag10
ag8
ag16
ag12
asba(iProducts.DataCollector.plugins.DataMaps
ObjectMap
p648
(dp649
g8
g9
sg10
g11
sg12
S'100.201.116.0/24'
p650
sg14
I0
sg15
I0
sg16
S''
sg17
I24
sg18
g19
sg20
S'100.200.1.61'
p651
sg22
S'100.201.116.0_24'
p652
sg24
g25
sg26
(lp653
g14
ag15
ag17
ag18
ag20
ag22
ag24
ag10
ag8
ag16
ag12
asba(iProducts.DataCollector.plugins.DataMaps
ObjectMap
p654
(dp655
g8
g9
sg10
g11
sg12
S'100.201.112.0/24'
p656
sg14
I0
sg15
I0
sg16
S''
sg17
I24
sg18
g19
sg20
S'100.200.1.61'
p657
sg22
S'100.201.112.0_24'
p658
sg24
g25
sg26
(lp659
g14
ag15
ag17
ag18
ag20
ag22
ag24
ag10
ag8
ag16
ag12
asba(iProducts.DataCollector.plugins.DataMaps
ObjectMap
p660
(dp661
g8
g9
sg10
g11
sg12
S'100.201.208.0/24'
p662
sg14
I0
sg15
I0
sg16
S''
sg17
I24
sg18
g19
sg20
S'100.200.1.61'
p663
sg22
S'100.201.208.0_24'
p664
sg24
g25
sg26
(lp665
g14
ag15
ag17
ag18
ag20
ag22
ag24
ag10
ag8
ag16
ag12
asba(iProducts.DataCollector.plugins.DataMaps
ObjectMap
p666
(dp667
g8
g9
sg10
g11
sg12
S'100.201.179.0/24'
p668
sg14
I0
sg15
I0
sg16
S''
sg17
I24
sg18
g19
sg20
S'100.200.1.61'
p669
sg22
S'100.201.179.0_24'
p670
sg24
g25
sg26
(lp671
g14
ag15
ag17
ag18
ag20
ag22
ag24
ag10
ag8
ag16
ag12
asba(iProducts.DataCollector.plugins.DataMaps
ObjectMap
p672
(dp673
g8
g9
sg10
g11
sg12
S'100.201.86.0/24'
p674
sg14
I0
sg15
I0
sg16
S''
sg17
I24
sg18
g19
sg20
S'100.200.1.61'
p675
sg22
S'100.201.86.0_24'
p676
sg24
g25
sg26
(lp677
g14
ag15
ag17
ag18
ag20
ag22
ag24
ag10
ag8
ag16
ag12
asba(iProducts.DataCollector.plugins.DataMaps
ObjectMap
p678
(dp679
g8
g9
sg10
g11
sg12
S'100.201.3.0/24'
p680
sg14
I0
sg15
I0
sg16
S''
sg17
I24
sg18
g19
sg20
S'100.200.1.61'
p681
sg22
S'100.201.3.0_24'
p682
sg24
g25
sg26
(lp683
g14
ag15
ag17
ag18
ag20
ag22
ag24
ag10
ag8
ag16
ag12
asba(iProducts.DataCollector.plugins.DataMaps
ObjectMap
p684
(dp685
g8
g9
sg10
g11
sg12
S'100.201.150.0/24'
p686
sg14
I0
sg15
I0
sg16
S''
sg17
I24
sg18
g19
sg20
S'100.200.1.61'
p687
sg22
S'100.201.150.0_24'
p688
sg24
g25
sg26
(lp689
g14
ag15
ag17
ag18
ag20
ag22
ag24
ag10
ag8
ag16
ag12
asba(iProducts.DataCollector.plugins.DataMaps
ObjectMap
p690
(dp691
g8
g9
sg10
g11
sg12
S'100.201.88.0/24'
p692
sg14
I0
sg15
I0
sg16
S''
sg17
I24
sg18
g19
sg20
S'100.200.1.61'
p693
sg22
S'100.201.88.0_24'
p694
sg24
g25
sg26
(lp695
g14
ag15
ag17
ag18
ag20
ag22
ag24
ag10
ag8
ag16
ag12
asba(iProducts.DataCollector.plugins.DataMaps
ObjectMap
p696
(dp697
g8
g9
sg10
g11
sg12
S'100.201.28.0/24'
p698
sg14
I0
sg15
I0
sg16
S''
sg17
I24
sg18
g19
sg20
S'100.200.1.61'
p699
sg22
S'100.201.28.0_24'
p700
sg24
g25
sg26
(lp701
g14
ag15
ag17
ag18
ag20
ag22
ag24
ag10
ag8
ag16
ag12
asba(iProducts.DataCollector.plugins.DataMaps
ObjectMap
p702
(dp703
g8
g9
sg10
g11
sg12
S'100.200.2.64/29'
p704
sg14
I0
sg15
I0
sg16
S''
sg17
I29
sg18
g19
sg20
S'100.200.1.21'
p705
sg22
S'100.200.2.64_29'
p706
sg24
g25
sg26
(lp707
g14
ag15
ag17
ag18
ag20
ag22
ag24
ag10
ag8
ag16
ag12
asba(iProducts.DataCollector.plugins.DataMaps
ObjectMap
p708
(dp709
g8
g9
sg10
g11
sg12
S'100.201.121.0/24'
p710
sg14
I0
sg15
I0
sg16
S''
sg17
I24
sg18
g19
sg20
S'100.200.1.61'
p711
sg22
S'100.201.121.0_24'
p712
sg24
g25
sg26
(lp713
g14
ag15
ag17
ag18
ag20
ag22
ag24
ag10
ag8
ag16
ag12
asba(iProducts.DataCollector.plugins.DataMaps
ObjectMap
p714
(dp715
g8
g9
sg10
g11
sg12
S'100.201.43.0/24'
p716
sg14
I0
sg15
I0
sg16
S''
sg17
I24
sg18
g19
sg20
S'100.200.1.61'
p717
sg22
S'100.201.43.0_24'
p718
sg24
g25
sg26
(lp719
g14
ag15
ag17
ag18
ag20
ag22
ag24
ag10
ag8
ag16
ag12
asba(iProducts.DataCollector.plugins.DataMaps
ObjectMap
p720
(dp721
g8
g9
sg10
g11
sg12
S'100.201.2.0/24'
p722
sg14
I0
sg15
I0
sg16
S''
sg17
I24
sg18
g19
sg20
S'100.200.1.61'
p723
sg22
S'100.201.2.0_24'
p724
sg24
g25
sg26
(lp725
g14
ag15
ag17
ag18
ag20
ag22
ag24
ag10
ag8
ag16
ag12
asba(iProducts.DataCollector.plugins.DataMaps
ObjectMap
p726
(dp727
g8
g9
sg10
g11
sg12
S'100.201.58.0/24'
p728
sg14
I0
sg15
I0
sg16
S''
sg17
I24
sg18
g19
sg20
S'100.200.1.61'
p729
sg22
S'100.201.58.0_24'
p730
sg24
g25
sg26
(lp731
g14
ag15
ag17
ag18
ag20
ag22
ag24
ag10
ag8
ag16
ag12
asba(iProducts.DataCollector.plugins.DataMaps
ObjectMap
p732
(dp733
g8
g9
sg10
g11
sg12
S'100.201.152.0/24'
p734
sg14
I0
sg15
I0
sg16
S''
sg17
I24
sg18
g19
sg20
S'100.200.1.61'
p735
sg22
S'100.201.152.0_24'
p736
sg24
g25
sg26
(lp737
g14
ag15
ag17
ag18
ag20
ag22
ag24
ag10
ag8
ag16
ag12
asba(iProducts.DataCollector.plugins.DataMaps
ObjectMap
p738
(dp739
g8
g9
sg10
g11
sg12
S'100.201.54.0/24'
p740
sg14
I0
sg15
I0
sg16
S''
sg17
I24
sg18
g19
sg20
S'100.200.1.61'
p741
sg22
S'100.201.54.0_24'
p742
sg24
g25
sg26
(lp743
g14
ag15
ag17
ag18
ag20
ag22
ag24
ag10
ag8
ag16
ag12
asba(iProducts.DataCollector.plugins.DataMaps
ObjectMap
p744
(dp745
g8
g9
sg10
g11
sg12
S'100.201.210.0/24'
p746
sg14
I0
sg15
I0
sg16
S''
sg17
I24
sg18
g19
sg20
S'100.200.1.61'
p747
sg22
S'100.201.210.0_24'
p748
sg24
g25
sg26
(lp749
g14
ag15
ag17
ag18
ag20
ag22
ag24
ag10
ag8
ag16
ag12
asba(iProducts.DataCollector.plugins.DataMaps
ObjectMap
p750
(dp751
g8
g9
sg10
g11
sg12
S'100.201.53.0/24'
p752
sg14
I0
sg15
I0
sg16
S''
sg17
I24
sg18
g19
sg20
S'100.200.1.61'
p753
sg22
S'100.201.53.0_24'
p754
sg24
g25
sg26
(lp755
g14
ag15
ag17
ag18
ag20
ag22
ag24
ag10
ag8
ag16
ag12
asba(iProducts.DataCollector.plugins.DataMaps
ObjectMap
p756
(dp757
g8
g9
sg10
g11
sg12
S'100.201.148.0/24'
p758
sg14
I0
sg15
I0
sg16
S''
sg17
I24
sg18
g19
sg20
S'100.200.1.61'
p759
sg22
S'100.201.148.0_24'
p760
sg24
g25
sg26
(lp761
g14
ag15
ag17
ag18
ag20
ag22
ag24
ag10
ag8
ag16
ag12
asba(iProducts.DataCollector.plugins.DataMaps
ObjectMap
p762
(dp763
g8
g9
sg10
g11
sg12
S'100.201.119.0/24'
p764
sg14
I0
sg15
I0
sg16
S''
sg17
I24
sg18
g19
sg20
S'100.200.1.61'
p765
sg22
S'100.201.119.0_24'
p766
sg24
g25
sg26
(lp767
g14
ag15
ag17
ag18
ag20
ag22
ag24
ag10
ag8
ag16
ag12
asba(iProducts.DataCollector.plugins.DataMaps
ObjectMap
p768
(dp769
g8
g9
sg10
g11
sg12
S'100.201.59.0/24'
p770
sg14
I0
sg15
I0
sg16
S''
sg17
I24
sg18
g19
sg20
S'100.200.1.61'
p771
sg22
S'100.201.59.0_24'
p772
sg24
g25
sg26
(lp773
g14
ag15
ag17
ag18
ag20
ag22
ag24
ag10
ag8
ag16
ag12
asba(iProducts.DataCollector.plugins.DataMaps
ObjectMap
p774
(dp775
g8
g9
sg10
g11
sg12
S'100.201.203.0/24'
p776
sg14
I0
sg15
I0
sg16
S''
sg17
I24
sg18
g19
sg20
S'100.200.1.61'
p777
sg22
S'100.201.203.0_24'
p778
sg24
g25
sg26
(lp779
g14
ag15
ag17
ag18
ag20
ag22
ag24
ag10
ag8
ag16
ag12
asba(iProducts.DataCollector.plugins.DataMaps
ObjectMap
p780
(dp781
g8
g9
sg10
g11
sg12
S'100.201.202.0/24'
p782
sg14
I0
sg15
I0
sg16
S''
sg17
I24
sg18
g19
sg20
S'100.200.1.61'
p783
sg22
S'100.201.202.0_24'
p784
sg24
g25
sg26
(lp785
g14
ag15
ag17
ag18
ag20
ag22
ag24
ag10
ag8
ag16
ag12
asba(iProducts.DataCollector.plugins.DataMaps
ObjectMap
p786
(dp787
g8
g9
sg10
g11
sg12
S'100.200.0.4/30'
p788
sg14
I0
sg15
I437815248
sg16
S''
sg17
I30
sg18
g19
sg20
S'100.200.0.6'
p789
sg22
S'100.200.0.4_30'
p790
sg24
g370
sg26
(lp791
g14
ag15
ag17
ag18
ag20
ag22
ag24
ag10
ag8
ag16
ag12
asba(iProducts.DataCollector.plugins.DataMaps
ObjectMap
p792
(dp793
g8
g9
sg10
g11
sg12
S'100.200.0.0/30'
p794
sg14
I0
sg15
I0
sg16
S''
sg17
I30
sg18
g169
sg20
S'100.200.0.13'
p795
sg22
S'100.200.0.0_30'
p796
sg24
g25
sg26
(lp797
g14
ag15
ag17
ag18
ag20
ag22
ag24
ag10
ag8
ag16
ag12
asba(iProducts.DataCollector.plugins.DataMaps
ObjectMap
p798
(dp799
g8
g9
sg10
g11
sg12
S'100.201.92.0/24'
p800
sg14
I0
sg15
I0
sg16
S''
sg17
I24
sg18
g19
sg20
S'100.200.1.61'
p801
sg22
S'100.201.92.0_24'
p802
sg24
g25
sg26
(lp803
g14
ag15
ag17
ag18
ag20
ag22
ag24
ag10
ag8
ag16
ag12
asba(iProducts.DataCollector.plugins.DataMaps
ObjectMap
p804
(dp805
g8
g9
sg10
g11
sg12
S'100.201.168.0/24'
p806
sg14
I0
sg15
I0
sg16
S''
sg17
I24
sg18
g19
sg20
S'100.200.1.61'
p807
sg22
S'100.201.168.0_24'
p808
sg24
g25
sg26
(lp809
g14
ag15
ag17
ag18
ag20
ag22
ag24
ag10
ag8
ag16
ag12
asba(iProducts.DataCollector.plugins.DataMaps
ObjectMap
p810
(dp811
g8
g9
sg10
g11
sg12
S'100.201.103.0/24'
p812
sg14
I0
sg15
I0
sg16
S''
sg17
I24
sg18
g19
sg20
S'100.200.1.61'
p813
sg22
S'100.201.103.0_24'
p814
sg24
g25
sg26
(lp815
g14
ag15
ag17
ag18
ag20
ag22
ag24
ag10
ag8
ag16
ag12
asba(iProducts.DataCollector.plugins.DataMaps
ObjectMap
p816
(dp817
g8
g9
sg10
g11
sg12
S'100.201.164.0/24'
p818
sg14
I0
sg15
I0
sg16
S''
sg17
I24
sg18
g19
sg20
S'100.200.1.61'
p819
sg22
S'100.201.164.0_24'
p820
sg24
g25
sg26
(lp821
g14
ag15
ag17
ag18
ag20
ag22
ag24
ag10
ag8
ag16
ag12
asba(iProducts.DataCollector.plugins.DataMaps
ObjectMap
p822
(dp823
g8
g9
sg10
g11
sg12
S'100.201.18.0/24'
p824
sg14
I0
sg15
I0
sg16
S''
sg17
I24
sg18
g19
sg20
S'100.200.1.61'
p825
sg22
S'100.201.18.0_24'
p826
sg24
g25
sg26
(lp827
g14
ag15
ag17
ag18
ag20
ag22
ag24
ag10
ag8
ag16
ag12
asba(iProducts.DataCollector.plugins.DataMaps
ObjectMap
p828
(dp829
g8
g9
sg10
g11
sg12
S'100.201.176.0/24'
p830
sg14
I0
sg15
I0
sg16
S''
sg17
I24
sg18
g19
sg20
S'100.200.1.61'
p831
sg22
S'100.201.176.0_24'
p832
sg24
g25
sg26
(lp833
g14
ag15
ag17
ag18
ag20
ag22
ag24
ag10
ag8
ag16
ag12
asba(iProducts.DataCollector.plugins.DataMaps
ObjectMap
p834
(dp835
g8
g9
sg10
g11
sg12
S'100.201.217.0/24'
p836
sg14
I0
sg15
I0
sg16
S''
sg17
I24
sg18
g19
sg20
S'100.200.1.61'
p837
sg22
S'100.201.217.0_24'
p838
sg24
g25
sg26
(lp839
g14
ag15
ag17
ag18
ag20
ag22
ag24
ag10
ag8
ag16
ag12
asba(iProducts.DataCollector.plugins.DataMaps
ObjectMap
p840
(dp841
g8
g9
sg10
g11
sg12
S'100.200.2.24/29'
p842
sg14
I0
sg15
I0
sg16
S''
sg17
I29
sg18
g19
sg20
S'100.200.1.11'
p843
sg22
S'100.200.2.24_29'
p844
sg24
g25
sg26
(lp845
g14
ag15
ag17
ag18
ag20
ag22
ag24
ag10
ag8
ag16
ag12
asba(iProducts.DataCollector.plugins.DataMaps
ObjectMap
p846
(dp847
g8
g9
sg10
g11
sg12
S'100.201.149.0/24'
p848
sg14
I0
sg15
I0
sg16
S''
sg17
I24
sg18
g19
sg20
S'100.200.1.61'
p849
sg22
S'100.201.149.0_24'
p850
sg24
g25
sg26
(lp851
g14
ag15
ag17
ag18
ag20
ag22
ag24
ag10
ag8
ag16
ag12
asba(iProducts.DataCollector.plugins.DataMaps
ObjectMap
p852
(dp853
g8
g9
sg10
g11
sg12
S'100.201.222.0/24'
p854
sg14
I0
sg15
I0
sg16
S''
sg17
I24
sg18
g19
sg20
S'100.200.1.61'
p855
sg22
S'100.201.222.0_24'
p856
sg24
g25
sg26
(lp857
g14
ag15
ag17
ag18
ag20
ag22
ag24
ag10
ag8
ag16
ag12
asba(iProducts.DataCollector.plugins.DataMaps
ObjectMap
p858
(dp859
g8
g9
sg10
g11
sg12
S'100.201.84.0/24'
p860
sg14
I0
sg15
I0
sg16
S''
sg17
I24
sg18
g19
sg20
S'100.200.1.61'
p861
sg22
S'100.201.84.0_24'
p862
sg24
g25
sg26
(lp863
g14
ag15
ag17
ag18
ag20
ag22
ag24
ag10
ag8
ag16
ag12
asba(iProducts.DataCollector.plugins.DataMaps
ObjectMap
p864
(dp865
g8
g9
sg10
g11
sg12
S'100.201.101.0/24'
p866
sg14
I0
sg15
I0
sg16
S''
sg17
I24
sg18
g19
sg20
S'100.200.1.61'
p867
sg22
S'100.201.101.0_24'
p868
sg24
g25
sg26
(lp869
g14
ag15
ag17
ag18
ag20
ag22
ag24
ag10
ag8
ag16
ag12
asba(iProducts.DataCollector.plugins.DataMaps
ObjectMap
p870
(dp871
g8
g9
sg10
g11
sg12
S'100.201.129.0/24'
p872
sg14
I0
sg15
I0
sg16
S''
sg17
I24
sg18
g19
sg20
S'100.200.1.61'
p873
sg22
S'100.201.129.0_24'
p874
sg24
g25
sg26
(lp875
g14
ag15
ag17
ag18
ag20
ag22
ag24
ag10
ag8
ag16
ag12
asba(iProducts.DataCollector.plugins.DataMaps
ObjectMap
p876
(dp877
g8
g9
sg10
g11
sg12
S'100.201.166.0/24'
p878
sg14
I0
sg15
I0
sg16
S''
sg17
I24
sg18
g19
sg20
S'100.200.1.61'
p879
sg22
S'100.201.166.0_24'
p880
sg24
g25
sg26
(lp881
g14
ag15
ag17
ag18
ag20
ag22
ag24
ag10
ag8
ag16
ag12
asba(iProducts.DataCollector.plugins.DataMaps
ObjectMap
p882
(dp883
g8
g9
sg10
g11
sg12
S'100.201.143.0/24'
p884
sg14
I0
sg15
I0
sg16
S''
sg17
I24
sg18
g19
sg20
S'100.200.1.61'
p885
sg22
S'100.201.143.0_24'
p886
sg24
g25
sg26
(lp887
g14
ag15
ag17
ag18
ag20
ag22
ag24
ag10
ag8
ag16
ag12
asba(iProducts.DataCollector.plugins.DataMaps
ObjectMap
p888
(dp889
g8
g9
sg10
g11
sg12
S'100.201.13.0/24'
p890
sg14
I0
sg15
I0
sg16
S''
sg17
I24
sg18
g19
sg20
S'100.200.1.61'
p891
sg22
S'100.201.13.0_24'
p892
sg24
g25
sg26
(lp893
g14
ag15
ag17
ag18
ag20
ag22
ag24
ag10
ag8
ag16
ag12
asba(iProducts.DataCollector.plugins.DataMaps
ObjectMap
p894
(dp895
g8
g9
sg10
g11
sg12
S'100.200.2.56/29'
p896
sg14
I0
sg15
I0
sg16
S''
sg17
I29
sg18
g19
sg20
S'100.200.1.19'
p897
sg22
S'100.200.2.56_29'
p898
sg24
g25
sg26
(lp899
g14
ag15
ag17
ag18
ag20
ag22
ag24
ag10
ag8
ag16
ag12
asba(iProducts.DataCollector.plugins.DataMaps
ObjectMap
p900
(dp901
g8
g9
sg10
g11
sg12
S'100.201.204.0/24'
p902
sg14
I0
sg15
I0
sg16
S''
sg17
I24
sg18
g19
sg20
S'100.200.1.61'
p903
sg22
S'100.201.204.0_24'
p904
sg24
g25
sg26
(lp905
g14
ag15
ag17
ag18
ag20
ag22
ag24
ag10
ag8
ag16
ag12
asba(iProducts.DataCollector.plugins.DataMaps
ObjectMap
p906
(dp907
g8
g9
sg10
g11
sg12
S'100.201.24.0/24'
p908
sg14
I0
sg15
I0
sg16
S''
sg17
I24
sg18
g19
sg20
S'100.200.1.61'
p909
sg22
S'100.201.24.0_24'
p910
sg24
g25
sg26
(lp911
g14
ag15
ag17
ag18
ag20
ag22
ag24
ag10
ag8
ag16
ag12
asba(iProducts.DataCollector.plugins.DataMaps
ObjectMap
p912
(dp913
g8
g9
sg10
g11
sg12
S'100.201.185.0/24'
p914
sg14
I0
sg15
I0
sg16
S''
sg17
I24
sg18
g19
sg20
S'100.200.1.61'
p915
sg22
S'100.201.185.0_24'
p916
sg24
g25
sg26
(lp917
g14
ag15
ag17
ag18
ag20
ag22
ag24
ag10
ag8
ag16
ag12
asba(iProducts.DataCollector.plugins.DataMaps
ObjectMap
p918
(dp919
g8
g9
sg10
g11
sg12
S'100.201.219.0/24'
p920
sg14
I0
sg15
I0
sg16
S''
sg17
I24
sg18
g19
sg20
S'100.200.1.61'
p921
sg22
S'100.201.219.0_24'
p922
sg24
g25
sg26
(lp923
g14
ag15
ag17
ag18
ag20
ag22
ag24
ag10
ag8
ag16
ag12
asba(iProducts.DataCollector.plugins.DataMaps
ObjectMap
p924
(dp925
g8
g9
sg10
g11
sg12
S'100.201.198.0/24'
p926
sg14
I0
sg15
I0
sg16
S''
sg17
I24
sg18
g19
sg20
S'100.200.1.61'
p927
sg22
S'100.201.198.0_24'
p928
sg24
g25
sg26
(lp929
g14
ag15
ag17
ag18
ag20
ag22
ag24
ag10
ag8
ag16
ag12
asba(iProducts.DataCollector.plugins.DataMaps
ObjectMap
p930
(dp931
g8
g9
sg10
g11
sg12
S'100.201.141.0/24'
p932
sg14
I0
sg15
I0
sg16
S''
sg17
I24
sg18
g19
sg20
S'100.200.1.61'
p933
sg22
S'100.201.141.0_24'
p934
sg24
g25
sg26
(lp935
g14
ag15
ag17
ag18
ag20
ag22
ag24
ag10
ag8
ag16
ag12
asba(iProducts.DataCollector.plugins.DataMaps
ObjectMap
p936
(dp937
g8
g9
sg10
g11
sg12
S'100.201.21.0/24'
p938
sg14
I0
sg15
I0
sg16
S''
sg17
I24
sg18
g19
sg20
S'100.200.1.61'
p939
sg22
S'100.201.21.0_24'
p940
sg24
g25
sg26
(lp941
g14
ag15
ag17
ag18
ag20
ag22
ag24
ag10
ag8
ag16
ag12
asba(iProducts.DataCollector.plugins.DataMaps
ObjectMap
p942
(dp943
g8
g9
sg10
g11
sg12
S'100.201.156.0/24'
p944
sg14
I0
sg15
I0
sg16
S''
sg17
I24
sg18
g19
sg20
S'100.200.1.61'
p945
sg22
S'100.201.156.0_24'
p946
sg24
g25
sg26
(lp947
g14
ag15
ag17
ag18
ag20
ag22
ag24
ag10
ag8
ag16
ag12
asba(iProducts.DataCollector.plugins.DataMaps
ObjectMap
p948
(dp949
g8
g9
sg10
g11
sg12
S'100.201.130.0/24'
p950
sg14
I0
sg15
I0
sg16
S''
sg17
I24
sg18
g19
sg20
S'100.200.1.61'
p951
sg22
S'100.201.130.0_24'
p952
sg24
g25
sg26
(lp953
g14
ag15
ag17
ag18
ag20
ag22
ag24
ag10
ag8
ag16
ag12
asba(iProducts.DataCollector.plugins.DataMaps
ObjectMap
p954
(dp955
g8
g9
sg10
g11
sg12
S'100.201.26.0/24'
p956
sg14
I0
sg15
I0
sg16
S''
sg17
I24
sg18
g19
sg20
S'100.200.1.61'
p957
sg22
S'100.201.26.0_24'
p958
sg24
g25
sg26
(lp959
g14
ag15
ag17
ag18
ag20
ag22
ag24
ag10
ag8
ag16
ag12
asba(iProducts.DataCollector.plugins.DataMaps
ObjectMap
p960
(dp961
g8
g9
sg10
g11
sg12
S'100.201.66.0/24'
p962
sg14
I0
sg15
I0
sg16
S''
sg17
I24
sg18
g19
sg20
S'100.200.1.61'
p963
sg22
S'100.201.66.0_24'
p964
sg24
g25
sg26
(lp965
g14
ag15
ag17
ag18
ag20
ag22
ag24
ag10
ag8
ag16
ag12
asba(iProducts.DataCollector.plugins.DataMaps
ObjectMap
p966
(dp967
g8
g9
sg10
g11
sg12
S'100.201.243.0/24'
p968
sg14
I0
sg15
I0
sg16
S''
sg17
I24
sg18
g19
sg20
S'100.200.1.61'
p969
sg22
S'100.201.243.0_24'
p970
sg24
g25
sg26
(lp971
g14
ag15
ag17
ag18
ag20
ag22
ag24
ag10
ag8
ag16
ag12
asba(iProducts.DataCollector.plugins.DataMaps
ObjectMap
p972
(dp973
g8
g9
sg10
g11
sg12
S'150.0.0.0/16'
p974
sg14
I0
sg15
I0
sg16
S''
sg17
I16
sg18
g169
sg20
S'100.200.0.5'
p975
sg22
S'150.0.0.0_16'
p976
sg24
g25
sg26
(lp977
g14
ag15
ag17
ag18
ag20
ag22
ag24
ag10
ag8
ag16
ag12
asba(iProducts.DataCollector.plugins.DataMaps
ObjectMap
p978
(dp979
g8
g9
sg10
g11
sg12
S'100.201.23.0/24'
p980
sg14
I0
sg15
I0
sg16
S''
sg17
I24
sg18
g19
sg20
S'100.200.1.61'
p981
sg22
S'100.201.23.0_24'
p982
sg24
g25
sg26
(lp983
g14
ag15
ag17
ag18
ag20
ag22
ag24
ag10
ag8
ag16
ag12
asba(iProducts.DataCollector.plugins.DataMaps
ObjectMap
p984
(dp985
g8
g9
sg10
g11
sg12
S'100.201.178.0/24'
p986
sg14
I0
sg15
I0
sg16
S''
sg17
I24
sg18
g19
sg20
S'100.200.1.61'
p987
sg22
S'100.201.178.0_24'
p988
sg24
g25
sg26
(lp989
g14
ag15
ag17
ag18
ag20
ag22
ag24
ag10
ag8
ag16
ag12
asba(iProducts.DataCollector.plugins.DataMaps
ObjectMap
p990
(dp991
g8
g9
sg10
g11
sg12
S'100.201.192.0/24'
p992
sg14
I0
sg15
I0
sg16
S''
sg17
I24
sg18
g19
sg20
S'100.200.1.61'
p993
sg22
S'100.201.192.0_24'
p994
sg24
g25
sg26
(lp995
g14
ag15
ag17
ag18
ag20
ag22
ag24
ag10
ag8
ag16
ag12
asba(iProducts.DataCollector.plugins.DataMaps
ObjectMap
p996
(dp997
g8
g9
sg10
g11
sg12
S'100.201.211.0/24'
p998
sg14
I0
sg15
I0
sg16
S''
sg17
I24
sg18
g19
sg20
S'100.200.1.61'
p999
sg22
S'100.201.211.0_24'
p1000
sg24
g25
sg26
(lp1001
g14
ag15
ag17
ag18
ag20
ag22
ag24
ag10
ag8
ag16
ag12
asba(iProducts.DataCollector.plugins.DataMaps
ObjectMap
p1002
(dp1003
g8
g9
sg10
g11
sg12
S'100.201.147.0/24'
p1004
sg14
I0
sg15
I0
sg16
S''
sg17
I24
sg18
g19
sg20
S'100.200.1.61'
p1005
sg22
S'100.201.147.0_24'
p1006
sg24
g25
sg26
(lp1007
g14
ag15
ag17
ag18
ag20
ag22
ag24
ag10
ag8
ag16
ag12
asba(iProducts.DataCollector.plugins.DataMaps
ObjectMap
p1008
(dp1009
g8
g9
sg10
g11
sg12
S'10.4.21.0/24'
p1010
sg14
I0
sg15
I0
sg16
S''
sg17
I24
sg18
g169
sg20
S'100.200.0.13'
p1011
sg22
S'10.4.21.0_24'
p1012
sg24
g25
sg26
(lp1013
g14
ag15
ag17
ag18
ag20
ag22
ag24
ag10
ag8
ag16
ag12
asba(iProducts.DataCollector.plugins.DataMaps
ObjectMap
p1014
(dp1015
g8
g9
sg10
g11
sg12
S'100.201.249.0/24'
p1016
sg14
I0
sg15
I0
sg16
S''
sg17
I24
sg18
g19
sg20
S'100.200.1.61'
p1017
sg22
S'100.201.249.0_24'
p1018
sg24
g25
sg26
(lp1019
g14
ag15
ag17
ag18
ag20
ag22
ag24
ag10
ag8
ag16
ag12
asba(iProducts.DataCollector.plugins.DataMaps
ObjectMap
p1020
(dp1021
g8
g9
sg10
g11
sg12
S'100.201.127.0/24'
p1022
sg14
I0
sg15
I0
sg16
S''
sg17
I24
sg18
g19
sg20
S'100.200.1.61'
p1023
sg22
S'100.201.127.0_24'
p1024
sg24
g25
sg26
(lp1025
g14
ag15
ag17
ag18
ag20
ag22
ag24
ag10
ag8
ag16
ag12
asba(iProducts.DataCollector.plugins.DataMaps
ObjectMap
p1026
(dp1027
g8
g9
sg10
g11
sg12
S'100.201.139.0/24'
p1028
sg14
I0
sg15
I0
sg16
S''
sg17
I24
sg18
g19
sg20
S'100.200.1.61'
p1029
sg22
S'100.201.139.0_24'
p1030
sg24
g25
sg26
(lp1031
g14
ag15
ag17
ag18
ag20
ag22
ag24
ag10
ag8
ag16
ag12
asba(iProducts.DataCollector.plugins.DataMaps
ObjectMap
p1032
(dp1033
g8
g9
sg10
g11
sg12
S'100.201.159.0/24'
p1034
sg14
I0
sg15
I0
sg16
S''
sg17
I24
sg18
g19
sg20
S'100.200.1.61'
p1035
sg22
S'100.201.159.0_24'
p1036
sg24
g25
sg26
(lp1037
g14
ag15
ag17
ag18
ag20
ag22
ag24
ag10
ag8
ag16
ag12
asba(iProducts.DataCollector.plugins.DataMaps
ObjectMap
p1038
(dp1039
g8
g9
sg10
g11
sg12
S'100.201.136.0/24'
p1040
sg14
I0
sg15
I0
sg16
S''
sg17
I24
sg18
g19
sg20
S'100.200.1.61'
p1041
sg22
S'100.201.136.0_24'
p1042
sg24
g25
sg26
(lp1043
g14
ag15
ag17
ag18
ag20
ag22
ag24
ag10
ag8
ag16
ag12
asba(iProducts.DataCollector.plugins.DataMaps
ObjectMap
p1044
(dp1045
g8
g9
sg10
g11
sg12
S'100.201.220.0/24'
p1046
sg14
I0
sg15
I0
sg16
S''
sg17
I24
sg18
g19
sg20
S'100.200.1.61'
p1047
sg22
S'100.201.220.0_24'
p1048
sg24
g25
sg26
(lp1049
g14
ag15
ag17
ag18
ag20
ag22
ag24
ag10
ag8
ag16
ag12
asba(iProducts.DataCollector.plugins.DataMaps
ObjectMap
p1050
(dp1051
g8
g9
sg10
g11
sg12
S'100.201.196.0/24'
p1052
sg14
I0
sg15
I0
sg16
S''
sg17
I24
sg18
g19
sg20
S'100.200.1.61'
p1053
sg22
S'100.201.196.0_24'
p1054
sg24
g25
sg26
(lp1055
g14
ag15
ag17
ag18
ag20
ag22
ag24
ag10
ag8
ag16
ag12
asba(iProducts.DataCollector.plugins.DataMaps
ObjectMap
p1056
(dp1057
g8
g9
sg10
g11
sg12
S'100.201.111.0/24'
p1058
sg14
I0
sg15
I0
sg16
S''
sg17
I24
sg18
g19
sg20
S'100.200.1.61'
p1059
sg22
S'100.201.111.0_24'
p1060
sg24
g25
sg26
(lp1061
g14
ag15
ag17
ag18
ag20
ag22
ag24
ag10
ag8
ag16
ag12
asba(iProducts.DataCollector.plugins.DataMaps
ObjectMap
p1062
(dp1063
g8
g9
sg10
g11
sg12
S'100.201.39.0/24'
p1064
sg14
I0
sg15
I0
sg16
S''
sg17
I24
sg18
g19
sg20
S'100.200.1.61'
p1065
sg22
S'100.201.39.0_24'
p1066
sg24
g25
sg26
(lp1067
g14
ag15
ag17
ag18
ag20
ag22
ag24
ag10
ag8
ag16
ag12
asba(iProducts.DataCollector.plugins.DataMaps
ObjectMap
p1068
(dp1069
g8
g9
sg10
g11
sg12
S'100.201.33.0/24'
p1070
sg14
I0
sg15
I0
sg16
S''
sg17
I24
sg18
g19
sg20
S'100.200.1.61'
p1071
sg22
S'100.201.33.0_24'
p1072
sg24
g25
sg26
(lp1073
g14
ag15
ag17
ag18
ag20
ag22
ag24
ag10
ag8
ag16
ag12
asba(iProducts.DataCollector.plugins.DataMaps
ObjectMap
p1074
(dp1075
g8
g9
sg10
g11
sg12
S'100.201.242.0/24'
p1076
sg14
I0
sg15
I0
sg16
S''
sg17
I24
sg18
g19
sg20
S'100.200.1.61'
p1077
sg22
S'100.201.242.0_24'
p1078
sg24
g25
sg26
(lp1079
g14
ag15
ag17
ag18
ag20
ag22
ag24
ag10
ag8
ag16
ag12
asba(iProducts.DataCollector.plugins.DataMaps
ObjectMap
p1080
(dp1081
g8
g9
sg10
g11
sg12
S'100.201.235.0/24'
p1082
sg14
I0
sg15
I0
sg16
S''
sg17
I24
sg18
g19
sg20
S'100.200.1.61'
p1083
sg22
S'100.201.235.0_24'
p1084
sg24
g25
sg26
(lp1085
g14
ag15
ag17
ag18
ag20
ag22
ag24
ag10
ag8
ag16
ag12
asba(iProducts.DataCollector.plugins.DataMaps
ObjectMap
p1086
(dp1087
g8
g9
sg10
g11
sg12
S'100.201.93.0/24'
p1088
sg14
I0
sg15
I0
sg16
S''
sg17
I24
sg18
g19
sg20
S'100.200.1.61'
p1089
sg22
S'100.201.93.0_24'
p1090
sg24
g25
sg26
(lp1091
g14
ag15
ag17
ag18
ag20
ag22
ag24
ag10
ag8
ag16
ag12
asba(iProducts.DataCollector.plugins.DataMaps
ObjectMap
p1092
(dp1093
g8
g9
sg10
g11
sg12
S'100.201.34.0/24'
p1094
sg14
I0
sg15
I0
sg16
S''
sg17
I24
sg18
g19
sg20
S'100.200.1.61'
p1095
sg22
S'100.201.34.0_24'
p1096
sg24
g25
sg26
(lp1097
g14
ag15
ag17
ag18
ag20
ag22
ag24
ag10
ag8
ag16
ag12
asba(iProducts.DataCollector.plugins.DataMaps
ObjectMap
p1098
(dp1099
g8
g9
sg10
g11
sg12
S'100.201.226.0/24'
p1100
sg14
I0
sg15
I0
sg16
S''
sg17
I24
sg18
g19
sg20
S'100.200.1.61'
p1101
sg22
S'100.201.226.0_24'
p1102
sg24
g25
sg26
(lp1103
g14
ag15
ag17
ag18
ag20
ag22
ag24
ag10
ag8
ag16
ag12
asba(iProducts.DataCollector.plugins.DataMaps
ObjectMap
p1104
(dp1105
g8
g9
sg10
g11
sg12
S'100.201.113.0/24'
p1106
sg14
I0
sg15
I0
sg16
S''
sg17
I24
sg18
g19
sg20
S'100.200.1.61'
p1107
sg22
S'100.201.113.0_24'
p1108
sg24
g25
sg26
(lp1109
g14
ag15
ag17
ag18
ag20
ag22
ag24
ag10
ag8
ag16
ag12
asba(iProducts.DataCollector.plugins.DataMaps
ObjectMap
p1110
(dp1111
g8
g9
sg10
g11
sg12
S'100.200.2.40/29'
p1112
sg14
I0
sg15
I0
sg16
S''
sg17
I29
sg18
g19
sg20
S'100.200.1.15'
p1113
sg22
S'100.200.2.40_29'
p1114
sg24
g25
sg26
(lp1115
g14
ag15
ag17
ag18
ag20
ag22
ag24
ag10
ag8
ag16
ag12
asba(iProducts.DataCollector.plugins.DataMaps
ObjectMap
p1116
(dp1117
g8
g9
sg10
g11
sg12
S'100.201.209.0/24'
p1118
sg14
I0
sg15
I0
sg16
S''
sg17
I24
sg18
g19
sg20
S'100.200.1.61'
p1119
sg22
S'100.201.209.0_24'
p1120
sg24
g25
sg26
(lp1121
g14
ag15
ag17
ag18
ag20
ag22
ag24
ag10
ag8
ag16
ag12
asba(iProducts.DataCollector.plugins.DataMaps
ObjectMap
p1122
(dp1123
g8
g9
sg10
g11
sg12
S'100.201.123.0/24'
p1124
sg14
I0
sg15
I0
sg16
S''
sg17
I24
sg18
g19
sg20
S'100.200.1.61'
p1125
sg22
S'100.201.123.0_24'
p1126
sg24
g25
sg26
(lp1127
g14
ag15
ag17
ag18
ag20
ag22
ag24
ag10
ag8
ag16
ag12
asba(iProducts.DataCollector.plugins.DataMaps
ObjectMap
p1128
(dp1129
g8
g9
sg10
g11
sg12
S'100.201.225.0/24'
p1130
sg14
I0
sg15
I0
sg16
S''
sg17
I24
sg18
g19
sg20
S'100.200.1.61'
p1131
sg22
S'100.201.225.0_24'
p1132
sg24
g25
sg26
(lp1133
g14
ag15
ag17
ag18
ag20
ag22
ag24
ag10
ag8
ag16
ag12
asba(iProducts.DataCollector.plugins.DataMaps
ObjectMap
p1134
(dp1135
g8
g9
sg10
g11
sg12
S'100.201.151.0/24'
p1136
sg14
I0
sg15
I0
sg16
S''
sg17
I24
sg18
g19
sg20
S'100.200.1.61'
p1137
sg22
S'100.201.151.0_24'
p1138
sg24
g25
sg26
(lp1139
g14
ag15
ag17
ag18
ag20
ag22
ag24
ag10
ag8
ag16
ag12
asba(iProducts.DataCollector.plugins.DataMaps
ObjectMap
p1140
(dp1141
g8
g9
sg10
g11
sg12
S'100.201.190.0/24'
p1142
sg14
I0
sg15
I0
sg16
S''
sg17
I24
sg18
g19
sg20
S'100.200.1.61'
p1143
sg22
S'100.201.190.0_24'
p1144
sg24
g25
sg26
(lp1145
g14
ag15
ag17
ag18
ag20
ag22
ag24
ag10
ag8
ag16
ag12
asba(iProducts.DataCollector.plugins.DataMaps
ObjectMap
p1146
(dp1147
g8
g9
sg10
g11
sg12
S'100.201.237.0/24'
p1148
sg14
I0
sg15
I0
sg16
S''
sg17
I24
sg18
g19
sg20
S'100.200.1.61'
p1149
sg22
S'100.201.237.0_24'
p1150
sg24
g25
sg26
(lp1151
g14
ag15
ag17
ag18
ag20
ag22
ag24
ag10
ag8
ag16
ag12
asba(iProducts.DataCollector.plugins.DataMaps
ObjectMap
p1152
(dp1153
g8
g9
sg10
g11
sg12
S'100.201.37.0/24'
p1154
sg14
I0
sg15
I0
sg16
S''
sg17
I24
sg18
g19
sg20
S'100.200.1.61'
p1155
sg22
S'100.201.37.0_24'
p1156
sg24
g25
sg26
(lp1157
g14
ag15
ag17
ag18
ag20
ag22
ag24
ag10
ag8
ag16
ag12
asba(iProducts.DataCollector.plugins.DataMaps
ObjectMap
p1158
(dp1159
g8
g9
sg10
g11
sg12
S'100.201.14.0/24'
p1160
sg14
I0
sg15
I0
sg16
S''
sg17
I24
sg18
g19
sg20
S'100.200.1.61'
p1161
sg22
S'100.201.14.0_24'
p1162
sg24
g25
sg26
(lp1163
g14
ag15
ag17
ag18
ag20
ag22
ag24
ag10
ag8
ag16
ag12
asba(iProducts.DataCollector.plugins.DataMaps
ObjectMap
p1164
(dp1165
g8
g9
sg10
g11
sg12
S'100.201.224.0/24'
p1166
sg14
I0
sg15
I0
sg16
S''
sg17
I24
sg18
g19
sg20
S'100.200.1.61'
p1167
sg22
S'100.201.224.0_24'
p1168
sg24
g25
sg26
(lp1169
g14
ag15
ag17
ag18
ag20
ag22
ag24
ag10
ag8
ag16
ag12
asba(iProducts.DataCollector.plugins.DataMaps
ObjectMap
p1170
(dp1171
g8
g9
sg10
g11
sg12
S'100.201.9.0/24'
p1172
sg14
I0
sg15
I0
sg16
S''
sg17
I24
sg18
g19
sg20
S'100.200.1.61'
p1173
sg22
S'100.201.9.0_24'
p1174
sg24
g25
sg26
(lp1175
g14
ag15
ag17
ag18
ag20
ag22
ag24
ag10
ag8
ag16
ag12
asba(iProducts.DataCollector.plugins.DataMaps
ObjectMap
p1176
(dp1177
g8
g9
sg10
g11
sg12
S'100.201.47.0/24'
p1178
sg14
I0
sg15
I0
sg16
S''
sg17
I24
sg18
g19
sg20
S'100.200.1.61'
p1179
sg22
S'100.201.47.0_24'
p1180
sg24
g25
sg26
(lp1181
g14
ag15
ag17
ag18
ag20
ag22
ag24
ag10
ag8
ag16
ag12
asba(iProducts.DataCollector.plugins.DataMaps
ObjectMap
p1182
(dp1183
g8
g9
sg10
g11
sg12
S'100.201.174.0/24'
p1184
sg14
I0
sg15
I0
sg16
S''
sg17
I24
sg18
g19
sg20
S'100.200.1.61'
p1185
sg22
S'100.201.174.0_24'
p1186
sg24
g25
sg26
(lp1187
g14
ag15
ag17
ag18
ag20
ag22
ag24
ag10
ag8
ag16
ag12
asba(iProducts.DataCollector.plugins.DataMaps
ObjectMap
p1188
(dp1189
g8
g9
sg10
g11
sg12
S'100.201.78.0/24'
p1190
sg14
I0
sg15
I0
sg16
S''
sg17
I24
sg18
g19
sg20
S'100.200.1.61'
p1191
sg22
S'100.201.78.0_24'
p1192
sg24
g25
sg26
(lp1193
g14
ag15
ag17
ag18
ag20
ag22
ag24
ag10
ag8
ag16
ag12
asba(iProducts.DataCollector.plugins.DataMaps
ObjectMap
p1194
(dp1195
g8
g9
sg10
g11
sg12
S'100.201.32.0/24'
p1196
sg14
I0
sg15
I0
sg16
S''
sg17
I24
sg18
g19
sg20
S'100.200.1.61'
p1197
sg22
S'100.201.32.0_24'
p1198
sg24
g25
sg26
(lp1199
g14
ag15
ag17
ag18
ag20
ag22
ag24
ag10
ag8
ag16
ag12
asba(iProducts.DataCollector.plugins.DataMaps
ObjectMap
p1200
(dp1201
g8
g9
sg10
g11
sg12
S'100.201.153.0/24'
p1202
sg14
I0
sg15
I0
sg16
S''
sg17
I24
sg18
g19
sg20
S'100.200.1.61'
p1203
sg22
S'100.201.153.0_24'
p1204
sg24
g25
sg26
(lp1205
g14
ag15
ag17
ag18
ag20
ag22
ag24
ag10
ag8
ag16
ag12
asba(iProducts.DataCollector.plugins.DataMaps
ObjectMap
p1206
(dp1207
g8
g9
sg10
g11
sg12
S'100.201.145.0/24'
p1208
sg14
I0
sg15
I0
sg16
S''
sg17
I24
sg18
g19
sg20
S'100.200.1.61'
p1209
sg22
S'100.201.145.0_24'
p1210
sg24
g25
sg26
(lp1211
g14
ag15
ag17
ag18
ag20
ag22
ag24
ag10
ag8
ag16
ag12
asba(iProducts.DataCollector.plugins.DataMaps
ObjectMap
p1212
(dp1213
g8
g9
sg10
g11
sg12
S'100.201.35.0/24'
p1214
sg14
I0
sg15
I0
sg16
S''
sg17
I24
sg18
g19
sg20
S'100.200.1.61'
p1215
sg22
S'100.201.35.0_24'
p1216
sg24
g25
sg26
(lp1217
g14
ag15
ag17
ag18
ag20
ag22
ag24
ag10
ag8
ag16
ag12
asba(iProducts.DataCollector.plugins.DataMaps
ObjectMap
p1218
(dp1219
g8
g9
sg10
g11
sg12
S'100.200.2.32/29'
p1220
sg14
I0
sg15
I0
sg16
S''
sg17
I29
sg18
g19
sg20
S'100.200.1.13'
p1221
sg22
S'100.200.2.32_29'
p1222
sg24
g25
sg26
(lp1223
g14
ag15
ag17
ag18
ag20
ag22
ag24
ag10
ag8
ag16
ag12
asba(iProducts.DataCollector.plugins.DataMaps
ObjectMap
p1224
(dp1225
g8
g9
sg10
g11
sg12
S'100.201.162.0/24'
p1226
sg14
I0
sg15
I0
sg16
S''
sg17
I24
sg18
g19
sg20
S'100.200.1.61'
p1227
sg22
S'100.201.162.0_24'
p1228
sg24
g25
sg26
(lp1229
g14
ag15
ag17
ag18
ag20
ag22
ag24
ag10
ag8
ag16
ag12
asba(iProducts.DataCollector.plugins.DataMaps
ObjectMap
p1230
(dp1231
g8
g9
sg10
g11
sg12
S'100.201.189.0/24'
p1232
sg14
I0
sg15
I0
sg16
S''
sg17
I24
sg18
g19
sg20
S'100.200.1.61'
p1233
sg22
S'100.201.189.0_24'
p1234
sg24
g25
sg26
(lp1235
g14
ag15
ag17
ag18
ag20
ag22
ag24
ag10
ag8
ag16
ag12
asba(iProducts.DataCollector.plugins.DataMaps
ObjectMap
p1236
(dp1237
g8
g9
sg10
g11
sg12
S'100.201.19.0/24'
p1238
sg14
I0
sg15
I0
sg16
S''
sg17
I24
sg18
g19
sg20
S'100.200.1.61'
p1239
sg22
S'100.201.19.0_24'
p1240
sg24
g25
sg26
(lp1241
g14
ag15
ag17
ag18
ag20
ag22
ag24
ag10
ag8
ag16
ag12
asba(iProducts.DataCollector.plugins.DataMaps
ObjectMap
p1242
(dp1243
g8
g9
sg10
g11
sg12
S'100.201.30.0/24'
p1244
sg14
I0
sg15
I0
sg16
S''
sg17
I24
sg18
g19
sg20
S'100.200.1.61'
p1245
sg22
S'100.201.30.0_24'
p1246
sg24
g25
sg26
(lp1247
g14
ag15
ag17
ag18
ag20
ag22
ag24
ag10
ag8
ag16
ag12
asba(iProducts.DataCollector.plugins.DataMaps
ObjectMap
p1248
(dp1249
g8
g9
sg10
g11
sg12
S'100.201.1.0/24'
p1250
sg14
I0
sg15
I0
sg16
S''
sg17
I24
sg18
g19
sg20
S'100.200.1.61'
p1251
sg22
S'100.201.1.0_24'
p1252
sg24
g25
sg26
(lp1253
g14
ag15
ag17
ag18
ag20
ag22
ag24
ag10
ag8
ag16
ag12
asba(iProducts.DataCollector.plugins.DataMaps
ObjectMap
p1254
(dp1255
g8
g9
sg10
g11
sg12
S'100.201.172.0/24'
p1256
sg14
I0
sg15
I0
sg16
S''
sg17
I24
sg18
g19
sg20
S'100.200.1.61'
p1257
sg22
S'100.201.172.0_24'
p1258
sg24
g25
sg26
(lp1259
g14
ag15
ag17
ag18
ag20
ag22
ag24
ag10
ag8
ag16
ag12
asba(iProducts.DataCollector.plugins.DataMaps
ObjectMap
p1260
(dp1261
g8
g9
sg10
g11
sg12
S'100.201.135.0/24'
p1262
sg14
I0
sg15
I0
sg16
S''
sg17
I24
sg18
g19
sg20
S'100.200.1.61'
p1263
sg22
S'100.201.135.0_24'
p1264
sg24
g25
sg26
(lp1265
g14
ag15
ag17
ag18
ag20
ag22
ag24
ag10
ag8
ag16
ag12
asba(iProducts.DataCollector.plugins.DataMaps
ObjectMap
p1266
(dp1267
g8
g9
sg10
g11
sg12
S'100.201.155.0/24'
p1268
sg14
I0
sg15
I0
sg16
S''
sg17
I24
sg18
g19
sg20
S'100.200.1.61'
p1269
sg22
S'100.201.155.0_24'
p1270
sg24
g25
sg26
(lp1271
g14
ag15
ag17
ag18
ag20
ag22
ag24
ag10
ag8
ag16
ag12
asba(iProducts.DataCollector.plugins.DataMaps
ObjectMap
p1272
(dp1273
g8
g9
sg10
g11
sg12
S'100.201.223.0/24'
p1274
sg14
I0
sg15
I0
sg16
S''
sg17
I24
sg18
g19
sg20
S'100.200.1.61'
p1275
sg22
S'100.201.223.0_24'
p1276
sg24
g25
sg26
(lp1277
g14
ag15
ag17
ag18
ag20
ag22
ag24
ag10
ag8
ag16
ag12
asba(iProducts.DataCollector.plugins.DataMaps
ObjectMap
p1278
(dp1279
g8
g9
sg10
g11
sg12
S'100.201.99.0/24'
p1280
sg14
I0
sg15
I0
sg16
S''
sg17
I24
sg18
g19
sg20
S'100.200.1.61'
p1281
sg22
S'100.201.99.0_24'
p1282
sg24
g25
sg26
(lp1283
g14
ag15
ag17
ag18
ag20
ag22
ag24
ag10
ag8
ag16
ag12
asba(iProducts.DataCollector.plugins.DataMaps
ObjectMap
p1284
(dp1285
g8
g9
sg10
g11
sg12
S'100.201.15.0/24'
p1286
sg14
I0
sg15
I0
sg16
S''
sg17
I24
sg18
g19
sg20
S'100.200.1.61'
p1287
sg22
S'100.201.15.0_24'
p1288
sg24
g25
sg26
(lp1289
g14
ag15
ag17
ag18
ag20
ag22
ag24
ag10
ag8
ag16
ag12
asba(iProducts.DataCollector.plugins.DataMaps
ObjectMap
p1290
(dp1291
g8
g9
sg10
g11
sg12
S'100.201.87.0/24'
p1292
sg14
I0
sg15
I0
sg16
S''
sg17
I24
sg18
g19
sg20
S'100.200.1.61'
p1293
sg22
S'100.201.87.0_24'
p1294
sg24
g25
sg26
(lp1295
g14
ag15
ag17
ag18
ag20
ag22
ag24
ag10
ag8
ag16
ag12
asba(iProducts.DataCollector.plugins.DataMaps
ObjectMap
p1296
(dp1297
g8
g9
sg10
g11
sg12
S'100.201.108.0/24'
p1298
sg14
I0
sg15
I0
sg16
S''
sg17
I24
sg18
g19
sg20
S'100.200.1.61'
p1299
sg22
S'100.201.108.0_24'
p1300
sg24
g25
sg26
(lp1301
g14
ag15
ag17
ag18
ag20
ag22
ag24
ag10
ag8
ag16
ag12
asba(iProducts.DataCollector.plugins.DataMaps
ObjectMap
p1302
(dp1303
g8
g9
sg10
g11
sg12
S'100.201.200.0/24'
p1304
sg14
I0
sg15
I0
sg16
S''
sg17
I24
sg18
g19
sg20
S'100.200.1.61'
p1305
sg22
S'100.201.200.0_24'
p1306
sg24
g25
sg26
(lp1307
g14
ag15
ag17
ag18
ag20
ag22
ag24
ag10
ag8
ag16
ag12
asba(iProducts.DataCollector.plugins.DataMaps
ObjectMap
p1308
(dp1309
g8
g9
sg10
g11
sg12
S'100.201.163.0/24'
p1310
sg14
I0
sg15
I0
sg16
S''
sg17
I24
sg18
g19
sg20
S'100.200.1.61'
p1311
sg22
S'100.201.163.0_24'
p1312
sg24
g25
sg26
(lp1313
g14
ag15
ag17
ag18
ag20
ag22
ag24
ag10
ag8
ag16
ag12
asba(iProducts.DataCollector.plugins.DataMaps
ObjectMap
p1314
(dp1315
g8
g9
sg10
g11
sg12
S'100.201.231.0/24'
p1316
sg14
I0
sg15
I0
sg16
S''
sg17
I24
sg18
g19
sg20
S'100.200.1.61'
p1317
sg22
S'100.201.231.0_24'
p1318
sg24
g25
sg26
(lp1319
g14
ag15
ag17
ag18
ag20
ag22
ag24
ag10
ag8
ag16
ag12
asba(iProducts.DataCollector.plugins.DataMaps
ObjectMap
p1320
(dp1321
g8
g9
sg10
g11
sg12
S'100.201.17.0/24'
p1322
sg14
I0
sg15
I0
sg16
S''
sg17
I24
sg18
g19
sg20
S'100.200.1.61'
p1323
sg22
S'100.201.17.0_24'
p1324
sg24
g25
sg26
(lp1325
g14
ag15
ag17
ag18
ag20
ag22
ag24
ag10
ag8
ag16
ag12
asba(iProducts.DataCollector.plugins.DataMaps
ObjectMap
p1326
(dp1327
g8
g9
sg10
g11
sg12
S'100.201.85.0/24'
p1328
sg14
I0
sg15
I0
sg16
S''
sg17
I24
sg18
g19
sg20
S'100.200.1.61'
p1329
sg22
S'100.201.85.0_24'
p1330
sg24
g25
sg26
(lp1331
g14
ag15
ag17
ag18
ag20
ag22
ag24
ag10
ag8
ag16
ag12
asba(iProducts.DataCollector.plugins.DataMaps
ObjectMap
p1332
(dp1333
g8
g9
sg10
g11
sg12
S'100.201.169.0/24'
p1334
sg14
I0
sg15
I0
sg16
S''
sg17
I24
sg18
g19
sg20
S'100.200.1.61'
p1335
sg22
S'100.201.169.0_24'
p1336
sg24
g25
sg26
(lp1337
g14
ag15
ag17
ag18
ag20
ag22
ag24
ag10
ag8
ag16
ag12
asba(iProducts.DataCollector.plugins.DataMaps
ObjectMap
p1338
(dp1339
g8
g9
sg10
g11
sg12
S'100.201.142.0/24'
p1340
sg14
I0
sg15
I0
sg16
S''
sg17
I24
sg18
g19
sg20
S'100.200.1.61'
p1341
sg22
S'100.201.142.0_24'
p1342
sg24
g25
sg26
(lp1343
g14
ag15
ag17
ag18
ag20
ag22
ag24
ag10
ag8
ag16
ag12
asba(iProducts.DataCollector.plugins.DataMaps
ObjectMap
p1344
(dp1345
g8
g9
sg10
g11
sg12
S'100.201.183.0/24'
p1346
sg14
I0
sg15
I0
sg16
S''
sg17
I24
sg18
g19
sg20
S'100.200.1.61'
p1347
sg22
S'100.201.183.0_24'
p1348
sg24
g25
sg26
(lp1349
g14
ag15
ag17
ag18
ag20
ag22
ag24
ag10
ag8
ag16
ag12
asba(iProducts.DataCollector.plugins.DataMaps
ObjectMap
p1350
(dp1351
g8
g9
sg10
g11
sg12
S'100.201.12.0/24'
p1352
sg14
I0
sg15
I0
sg16
S''
sg17
I24
sg18
g19
sg20
S'100.200.1.61'
p1353
sg22
S'100.201.12.0_24'
p1354
sg24
g25
sg26
(lp1355
g14
ag15
ag17
ag18
ag20
ag22
ag24
ag10
ag8
ag16
ag12
asba(iProducts.DataCollector.plugins.DataMaps
ObjectMap
p1356
(dp1357
g8
g9
sg10
g11
sg12
S'127.0.0.0/8'
p1358
sg14
I0
sg15
I385875968
sg16
S''
sg17
I8
sg18
g19
sg20
S'0.0.0.0'
p1359
sg22
S'127.0.0.0_8'
p1360
sg24
g370
sg26
(lp1361
g14
ag15
ag17
ag18
ag20
ag22
ag24
ag10
ag8
ag16
ag12
asba(iProducts.DataCollector.plugins.DataMaps
ObjectMap
p1362
(dp1363
g8
g9
sg10
g11
sg12
S'100.201.233.0/24'
p1364
sg14
I0
sg15
I0
sg16
S''
sg17
I24
sg18
g19
sg20
S'100.200.1.61'
p1365
sg22
S'100.201.233.0_24'
p1366
sg24
g25
sg26
(lp1367
g14
ag15
ag17
ag18
ag20
ag22
ag24
ag10
ag8
ag16
ag12
asba(iProducts.DataCollector.plugins.DataMaps
ObjectMap
p1368
(dp1369
g8
g9
sg10
g11
sg12
S'100.201.25.0/24'
p1370
sg14
I0
sg15
I0
sg16
S''
sg17
I24
sg18
g19
sg20
S'100.200.1.61'
p1371
sg22
S'100.201.25.0_24'
p1372
sg24
g25
sg26
(lp1373
g14
ag15
ag17
ag18
ag20
ag22
ag24
ag10
ag8
ag16
ag12
asba(iProducts.DataCollector.plugins.DataMaps
ObjectMap
p1374
(dp1375
g8
g9
sg10
g11
sg12
S'100.201.218.0/24'
p1376
sg14
I0
sg15
I0
sg16
S''
sg17
I24
sg18
g19
sg20
S'100.200.1.61'
p1377
sg22
S'100.201.218.0_24'
p1378
sg24
g25
sg26
(lp1379
g14
ag15
ag17
ag18
ag20
ag22
ag24
ag10
ag8
ag16
ag12
asba(iProducts.DataCollector.plugins.DataMaps
ObjectMap
p1380
(dp1381
g8
g9
sg10
g11
sg12
S'100.201.8.0/24'
p1382
sg14
I0
sg15
I0
sg16
S''
sg17
I24
sg18
g19
sg20
S'100.200.1.61'
p1383
sg22
S'100.201.8.0_24'
p1384
sg24
g25
sg26
(lp1385
g14
ag15
ag17
ag18
ag20
ag22
ag24
ag10
ag8
ag16
ag12
asba(iProducts.DataCollector.plugins.DataMaps
ObjectMap
p1386
(dp1387
g8
g9
sg10
g11
sg12
S'100.201.124.0/24'
p1388
sg14
I0
sg15
I0
sg16
S''
sg17
I24
sg18
g19
sg20
S'100.200.1.61'
p1389
sg22
S'100.201.124.0_24'
p1390
sg24
g25
sg26
(lp1391
g14
ag15
ag17
ag18
ag20
ag22
ag24
ag10
ag8
ag16
ag12
asba(iProducts.DataCollector.plugins.DataMaps
ObjectMap
p1392
(dp1393
g8
g9
sg10
g11
sg12
S'100.201.140.0/24'
p1394
sg14
I0
sg15
I0
sg16
S''
sg17
I24
sg18
g19
sg20
S'100.200.1.61'
p1395
sg22
S'100.201.140.0_24'
p1396
sg24
g25
sg26
(lp1397
g14
ag15
ag17
ag18
ag20
ag22
ag24
ag10
ag8
ag16
ag12
asba(iProducts.DataCollector.plugins.DataMaps
ObjectMap
p1398
(dp1399
g8
g9
sg10
g11
sg12
S'100.201.57.0/24'
p1400
sg14
I0
sg15
I0
sg16
S''
sg17
I24
sg18
g19
sg20
S'100.200.1.61'
p1401
sg22
S'100.201.57.0_24'
p1402
sg24
g25
sg26
(lp1403
g14
ag15
ag17
ag18
ag20
ag22
ag24
ag10
ag8
ag16
ag12
asba(iProducts.DataCollector.plugins.DataMaps
ObjectMap
p1404
(dp1405
g8
g9
sg10
g11
sg12
S'100.201.52.0/24'
p1406
sg14
I0
sg15
I0
sg16
S''
sg17
I24
sg18
g19
sg20
S'100.200.1.61'
p1407
sg22
S'100.201.52.0_24'
p1408
sg24
g25
sg26
(lp1409
g14
ag15
ag17
ag18
ag20
ag22
ag24
ag10
ag8
ag16
ag12
asba(iProducts.DataCollector.plugins.DataMaps
ObjectMap
p1410
(dp1411
g8
g9
sg10
g11
sg12
S'100.201.157.0/24'
p1412
sg14
I0
sg15
I0
sg16
S''
sg17
I24
sg18
g19
sg20
S'100.200.1.61'
p1413
sg22
S'100.201.157.0_24'
p1414
sg24
g25
sg26
(lp1415
g14
ag15
ag17
ag18
ag20
ag22
ag24
ag10
ag8
ag16
ag12
asba(iProducts.DataCollector.plugins.DataMaps
ObjectMap
p1416
(dp1417
g8
g9
sg10
g11
sg12
S'100.201.5.0/24'
p1418
sg14
I0
sg15
I0
sg16
S''
sg17
I24
sg18
g19
sg20
S'100.200.1.61'
p1419
sg22
S'100.201.5.0_24'
p1420
sg24
g25
sg26
(lp1421
g14
ag15
ag17
ag18
ag20
ag22
ag24
ag10
ag8
ag16
ag12
asba(iProducts.DataCollector.plugins.DataMaps
ObjectMap
p1422
(dp1423
g8
g9
sg10
g11
sg12
S'100.201.117.0/24'
p1424
sg14
I0
sg15
I0
sg16
S''
sg17
I24
sg18
g19
sg20
S'100.200.1.61'
p1425
sg22
S'100.201.117.0_24'
p1426
sg24
g25
sg26
(lp1427
g14
ag15
ag17
ag18
ag20
ag22
ag24
ag10
ag8
ag16
ag12
asba(iProducts.DataCollector.plugins.DataMaps
ObjectMap
p1428
(dp1429
g8
g9
sg10
g11
sg12
S'100.201.194.0/24'
p1430
sg14
I0
sg15
I0
sg16
S''
sg17
I24
sg18
g19
sg20
S'100.200.1.61'
p1431
sg22
S'100.201.194.0_24'
p1432
sg24
g25
sg26
(lp1433
g14
ag15
ag17
ag18
ag20
ag22
ag24
ag10
ag8
ag16
ag12
asba(iProducts.DataCollector.plugins.DataMaps
ObjectMap
p1434
(dp1435
g8
g9
sg10
g11
sg12
S'131.1.1.0/24'
p1436
sg14
I0
sg15
I0
sg16
S''
sg17
I24
sg18
g169
sg20
S'100.200.0.5'
p1437
sg22
S'131.1.1.0_24'
p1438
sg24
g25
sg26
(lp1439
g14
ag15
ag17
ag18
ag20
ag22
ag24
ag10
ag8
ag16
ag12
asba(iProducts.DataCollector.plugins.DataMaps
ObjectMap
p1440
(dp1441
g8
g9
sg10
g11
sg12
S'100.201.76.0/24'
p1442
sg14
I0
sg15
I0
sg16
S''
sg17
I24
sg18
g19
sg20
S'100.200.1.61'
p1443
sg22
S'100.201.76.0_24'
p1444
sg24
g25
sg26
(lp1445
g14
ag15
ag17
ag18
ag20
ag22
ag24
ag10
ag8
ag16
ag12
asba(iProducts.DataCollector.plugins.DataMaps
ObjectMap
p1446
(dp1447
g8
g9
sg10
g11
sg12
S'100.201.122.0/24'
p1448
sg14
I0
sg15
I0
sg16
S''
sg17
I24
sg18
g19
sg20
S'100.200.1.61'
p1449
sg22
S'100.201.122.0_24'
p1450
sg24
g25
sg26
(lp1451
g14
ag15
ag17
ag18
ag20
ag22
ag24
ag10
ag8
ag16
ag12
asba(iProducts.DataCollector.plugins.DataMaps
ObjectMap
p1452
(dp1453
g8
g9
sg10
g11
sg12
S'100.201.146.0/24'
p1454
sg14
I0
sg15
I0
sg16
S''
sg17
I24
sg18
g19
sg20
S'100.200.1.61'
p1455
sg22
S'100.201.146.0_24'
p1456
sg24
g25
sg26
(lp1457
g14
ag15
ag17
ag18
ag20
ag22
ag24
ag10
ag8
ag16
ag12
asba(iProducts.DataCollector.plugins.DataMaps
ObjectMap
p1458
(dp1459
g8
g9
sg10
g11
sg12
S'100.201.240.0/24'
p1460
sg14
I0
sg15
I0
sg16
S''
sg17
I24
sg18
g19
sg20
S'100.200.1.61'
p1461
sg22
S'100.201.240.0_24'
p1462
sg24
g25
sg26
(lp1463
g14
ag15
ag17
ag18
ag20
ag22
ag24
ag10
ag8
ag16
ag12
asba(iProducts.DataCollector.plugins.DataMaps
ObjectMap
p1464
(dp1465
g8
g9
sg10
g11
sg12
S'100.201.221.0/24'
p1466
sg14
I0
sg15
I0
sg16
S''
sg17
I24
sg18
g19
sg20
S'100.200.1.61'
p1467
sg22
S'100.201.221.0_24'
p1468
sg24
g25
sg26
(lp1469
g14
ag15
ag17
ag18
ag20
ag22
ag24
ag10
ag8
ag16
ag12
asba(iProducts.DataCollector.plugins.DataMaps
ObjectMap
p1470
(dp1471
g8
g9
sg10
g11
sg12
S'100.201.241.0/24'
p1472
sg14
I0
sg15
I0
sg16
S''
sg17
I24
sg18
g19
sg20
S'100.200.1.61'
p1473
sg22
S'100.201.241.0_24'
p1474
sg24
g25
sg26
(lp1475
g14
ag15
ag17
ag18
ag20
ag22
ag24
ag10
ag8
ag16
ag12
asba(iProducts.DataCollector.plugins.DataMaps
ObjectMap
p1476
(dp1477
g8
g9
sg10
g11
sg12
S'100.201.62.0/24'
p1478
sg14
I0
sg15
I0
sg16
S''
sg17
I24
sg18
g19
sg20
S'100.200.1.61'
p1479
sg22
S'100.201.62.0_24'
p1480
sg24
g25
sg26
(lp1481
g14
ag15
ag17
ag18
ag20
ag22
ag24
ag10
ag8
ag16
ag12
asba(iProducts.DataCollector.plugins.DataMaps
ObjectMap
p1482
(dp1483
g8
g9
sg10
g11
sg12
S'100.200.0.8/30'
p1484
sg14
I0
sg15
I0
sg16
S''
sg17
I30
sg18
g169
sg20
S'100.200.0.5'
p1485
sg22
S'100.200.0.8_30'
p1486
sg24
g25
sg26
(lp1487
g14
ag15
ag17
ag18
ag20
ag22
ag24
ag10
ag8
ag16
ag12
asba(iProducts.DataCollector.plugins.DataMaps
ObjectMap
p1488
(dp1489
g8
g9
sg10
g11
sg12
S'100.201.90.0/24'
p1490
sg14
I0
sg15
I0
sg16
S''
sg17
I24
sg18
g19
sg20
S'100.200.1.61'
p1491
sg22
S'100.201.90.0_24'
p1492
sg24
g25
sg26
(lp1493
g14
ag15
ag17
ag18
ag20
ag22
ag24
ag10
ag8
ag16
ag12
asba(iProducts.DataCollector.plugins.DataMaps
ObjectMap
p1494
(dp1495
g8
g9
sg10
g11
sg12
S'100.201.197.0/24'
p1496
sg14
I0
sg15
I0
sg16
S''
sg17
I24
sg18
g19
sg20
S'100.200.1.61'
p1497
sg22
S'100.201.197.0_24'
p1498
sg24
g25
sg26
(lp1499
g14
ag15
ag17
ag18
ag20
ag22
ag24
ag10
ag8
ag16
ag12
asba(iProducts.DataCollector.plugins.DataMaps
ObjectMap
p1500
(dp1501
g8
g9
sg10
g11
sg12
S'100.201.97.0/24'
p1502
sg14
I0
sg15
I0
sg16
S''
sg17
I24
sg18
g19
sg20
S'100.200.1.61'
p1503
sg22
S'100.201.97.0_24'
p1504
sg24
g25
sg26
(lp1505
g14
ag15
ag17
ag18
ag20
ag22
ag24
ag10
ag8
ag16
ag12
asba(iProducts.DataCollector.plugins.DataMaps
ObjectMap
p1506
(dp1507
g8
g9
sg10
g11
sg12
S'100.201.213.0/24'
p1508
sg14
I0
sg15
I0
sg16
S''
sg17
I24
sg18
g19
sg20
S'100.200.1.61'
p1509
sg22
S'100.201.213.0_24'
p1510
sg24
g25
sg26
(lp1511
g14
ag15
ag17
ag18
ag20
ag22
ag24
ag10
ag8
ag16
ag12
asba(iProducts.DataCollector.plugins.DataMaps
ObjectMap
p1512
(dp1513
g8
g9
sg10
g11
sg12
S'100.201.38.0/24'
p1514
sg14
I0
sg15
I0
sg16
S''
sg17
I24
sg18
g19
sg20
S'100.200.1.61'
p1515
sg22
S'100.201.38.0_24'
p1516
sg24
g25
sg26
(lp1517
g14
ag15
ag17
ag18
ag20
ag22
ag24
ag10
ag8
ag16
ag12
asba(iProducts.DataCollector.plugins.DataMaps
ObjectMap
p1518
(dp1519
g8
g9
sg10
g11
sg12
S'100.201.51.0/24'
p1520
sg14
I0
sg15
I0
sg16
S''
sg17
I24
sg18
g19
sg20
S'100.200.1.61'
p1521
sg22
S'100.201.51.0_24'
p1522
sg24
g25
sg26
(lp1523
g14
ag15
ag17
ag18
ag20
ag22
ag24
ag10
ag8
ag16
ag12
asba(iProducts.DataCollector.plugins.DataMaps
ObjectMap
p1524
(dp1525
g8
g9
sg10
g11
sg12
S'100.201.234.0/24'
p1526
sg14
I0
sg15
I0
sg16
S''
sg17
I24
sg18
g19
sg20
S'100.200.1.61'
p1527
sg22
S'100.201.234.0_24'
p1528
sg24
g25
sg26
(lp1529
g14
ag15
ag17
ag18
ag20
ag22
ag24
ag10
ag8
ag16
ag12
asba(iProducts.DataCollector.plugins.DataMaps
ObjectMap
p1530
(dp1531
g8
g9
sg10
g11
sg12
S'100.201.83.0/24'
p1532
sg14
I0
sg15
I0
sg16
S''
sg17
I24
sg18
g19
sg20
S'100.200.1.61'
p1533
sg22
S'100.201.83.0_24'
p1534
sg24
g25
sg26
(lp1535
g14
ag15
ag17
ag18
ag20
ag22
ag24
ag10
ag8
ag16
ag12
asba(iProducts.DataCollector.plugins.DataMaps
ObjectMap
p1536
(dp1537
g8
g9
sg10
g11
sg12
S'100.201.227.0/24'
p1538
sg14
I0
sg15
I0
sg16
S''
sg17
I24
sg18
g19
sg20
S'100.200.1.61'
p1539
sg22
S'100.201.227.0_24'
p1540
sg24
g25
sg26
(lp1541
g14
ag15
ag17
ag18
ag20
ag22
ag24
ag10
ag8
ag16
ag12
asba(iProducts.DataCollector.plugins.DataMaps
ObjectMap
p1542
(dp1543
g8
g9
sg10
g11
sg12
S'100.201.177.0/24'
p1544
sg14
I0
sg15
I0
sg16
S''
sg17
I24
sg18
g19
sg20
S'100.200.1.61'
p1545
sg22
S'100.201.177.0_24'
p1546
sg24
g25
sg26
(lp1547
g14
ag15
ag17
ag18
ag20
ag22
ag24
ag10
ag8
ag16
ag12
asba(iProducts.DataCollector.plugins.DataMaps
ObjectMap
p1548
(dp1549
g8
g9
sg10
g11
sg12
S'1.1.1.0/24'
p1550
sg14
I0
sg15
I385875968
sg16
S''
sg17
I24
sg18
g19
sg20
S'0.0.0.0'
p1551
sg22
S'1.1.1.0_24'
p1552
sg24
g25
sg26
(lp1553
g14
ag15
ag17
ag18
ag20
ag22
ag24
ag10
ag8
ag16
ag12
asba(iProducts.DataCollector.plugins.DataMaps
ObjectMap
p1554
(dp1555
g8
g9
sg10
g11
sg12
S'100.201.191.0/24'
p1556
sg14
I0
sg15
I0
sg16
S''
sg17
I24
sg18
g19
sg20
S'100.200.1.61'
p1557
sg22
S'100.201.191.0_24'
p1558
sg24
g25
sg26
(lp1559
g14
ag15
ag17
ag18
ag20
ag22
ag24
ag10
ag8
ag16
ag12
asba(iProducts.DataCollector.plugins.DataMaps
ObjectMap
p1560
(dp1561
g8
g9
sg10
g11
sg12
S'100.201.6.0/24'
p1562
sg14
I0
sg15
I0
sg16
S''
sg17
I24
sg18
g19
sg20
S'100.200.1.61'
p1563
sg22
S'100.201.6.0_24'
p1564
sg24
g25
sg26
(lp1565
g14
ag15
ag17
ag18
ag20
ag22
ag24
ag10
ag8
ag16
ag12
asba(iProducts.DataCollector.plugins.DataMaps
ObjectMap
p1566
(dp1567
g8
g9
sg10
g11
sg12
S'100.200.0.12/30'
p1568
sg14
I0
sg15
I437290960
sg16
S''
sg17
I30
sg18
g19
sg20
S'100.200.0.14'
p1569
sg22
S'100.200.0.12_30'
p1570
sg24
g370
sg26
(lp1571
g14
ag15
ag17
ag18
ag20
ag22
ag24
ag10
ag8
ag16
ag12
asba(iProducts.DataCollector.plugins.DataMaps
ObjectMap
p1572
(dp1573
g8
g9
sg10
g11
sg12
S'100.200.0.16/30'
p1574
sg14
I0
sg15
I369099185
sg16
S''
sg17
I30
sg18
g19
sg20
S'100.200.0.18'
p1575
sg22
S'100.200.0.16_30'
p1576
sg24
g370
sg26
(lp1577
g14
ag15
ag17
ag18
ag20
ag22
ag24
ag10
ag8
ag16
ag12
asba(iProducts.DataCollector.plugins.DataMaps
ObjectMap
p1578
(dp1579
g8
g9
sg10
g11
sg12
S'100.201.132.0/24'
p1580
sg14
I0
sg15
I0
sg16
S''
sg17
I24
sg18
g19
sg20
S'100.200.1.61'
p1581
sg22
S'100.201.132.0_24'
p1582
sg24
g25
sg26
(lp1583
g14
ag15
ag17
ag18
ag20
ag22
ag24
ag10
ag8
ag16
ag12
asba(iProducts.DataCollector.plugins.DataMaps
ObjectMap
p1584
(dp1585
g8
g9
sg10
g11
sg12
S'100.201.144.0/24'
p1586
sg14
I0
sg15
I0
sg16
S''
sg17
I24
sg18
g19
sg20
S'100.200.1.61'
p1587
sg22
S'100.201.144.0_24'
p1588
sg24
g25
sg26
(lp1589
g14
ag15
ag17
ag18
ag20
ag22
ag24
ag10
ag8
ag16
ag12
asba(iProducts.DataCollector.plugins.DataMaps
ObjectMap
p1590
(dp1591
g8
g9
sg10
g11
sg12
S'100.201.31.0/24'
p1592
sg14
I0
sg15
I0
sg16
S''
sg17
I24
sg18
g19
sg20
S'100.200.1.61'
p1593
sg22
S'100.201.31.0_24'
p1594
sg24
g25
sg26
(lp1595
g14
ag15
ag17
ag18
ag20
ag22
ag24
ag10
ag8
ag16
ag12
asba(iProducts.DataCollector.plugins.DataMaps
ObjectMap
p1596
(dp1597
g8
g9
sg10
g11
sg12
S'100.201.104.0/24'
p1598
sg14
I0
sg15
I0
sg16
S''
sg17
I24
sg18
g19
sg20
S'100.200.1.61'
p1599
sg22
S'100.201.104.0_24'
p1600
sg24
g25
sg26
(lp1601
g14
ag15
ag17
ag18
ag20
ag22
ag24
ag10
ag8
ag16
ag12
asba(iProducts.DataCollector.plugins.DataMaps
ObjectMap
p1602
(dp1603
g8
g9
sg10
g11
sg12
S'100.201.81.0/24'
p1604
sg14
I0
sg15
I0
sg16
S''
sg17
I24
sg18
g19
sg20
S'100.200.1.61'
p1605
sg22
S'100.201.81.0_24'
p1606
sg24
g25
sg26
(lp1607
g14
ag15
ag17
ag18
ag20
ag22
ag24
ag10
ag8
ag16
ag12
asba(iProducts.DataCollector.plugins.DataMaps
ObjectMap
p1608
(dp1609
g8
g9
sg10
g11
sg12
S'100.201.4.0/24'
p1610
sg14
I0
sg15
I0
sg16
S''
sg17
I24
sg18
g19
sg20
S'100.200.1.61'
p1611
sg22
S'100.201.4.0_24'
p1612
sg24
g25
sg26
(lp1613
g14
ag15
ag17
ag18
ag20
ag22
ag24
ag10
ag8
ag16
ag12
asba(iProducts.DataCollector.plugins.DataMaps
ObjectMap
p1614
(dp1615
g8
g9
sg10
g11
sg12
S'100.201.188.0/24'
p1616
sg14
I0
sg15
I0
sg16
S''
sg17
I24
sg18
g19
sg20
S'100.200.1.61'
p1617
sg22
S'100.201.188.0_24'
p1618
sg24
g25
sg26
(lp1619
g14
ag15
ag17
ag18
ag20
ag22
ag24
ag10
ag8
ag16
ag12
asba(iProducts.DataCollector.plugins.DataMaps
ObjectMap
p1620
(dp1621
g8
g9
sg10
g11
sg12
S'100.201.206.0/24'
p1622
sg14
I0
sg15
I0
sg16
S''
sg17
I24
sg18
g19
sg20
S'100.200.1.61'
p1623
sg22
S'100.201.206.0_24'
p1624
sg24
g25
sg26
(lp1625
g14
ag15
ag17
ag18
ag20
ag22
ag24
ag10
ag8
ag16
ag12
asba(iProducts.DataCollector.plugins.DataMaps
ObjectMap
p1626
(dp1627
g8
g9
sg10
g11
sg12
S'10.21.22.0/24'
p1628
sg14
I0
sg15
I0
sg16
S''
sg17
I24
sg18
g169
sg20
S'100.200.0.5'
p1629
sg22
S'10.21.22.0_24'
p1630
sg24
g25
sg26
(lp1631
g14
ag15
ag17
ag18
ag20
ag22
ag24
ag10
ag8
ag16
ag12
asba(iProducts.DataCollector.plugins.DataMaps
ObjectMap
p1632
(dp1633
g8
g9
sg10
g11
sg12
S'100.201.187.0/24'
p1634
sg14
I0
sg15
I0
sg16
S''
sg17
I24
sg18
g19
sg20
S'100.200.1.61'
p1635
sg22
S'100.201.187.0_24'
p1636
sg24
g25
sg26
(lp1637
g14
ag15
ag17
ag18
ag20
ag22
ag24
ag10
ag8
ag16
ag12
asba(iProducts.DataCollector.plugins.DataMaps
ObjectMap
p1638
(dp1639
g8
g9
sg10
g11
sg12
S'100.201.56.0/24'
p1640
sg14
I0
sg15
I0
sg16
S''
sg17
I24
sg18
g19
sg20
S'100.200.1.61'
p1641
sg22
S'100.201.56.0_24'
p1642
sg24
g25
sg26
(lp1643
g14
ag15
ag17
ag18
ag20
ag22
ag24
ag10
ag8
ag16
ag12
asba(iProducts.DataCollector.plugins.DataMaps
ObjectMap
p1644
(dp1645
g8
g9
sg10
g11
sg12
S'100.201.118.0/24'
p1646
sg14
I0
sg15
I0
sg16
S''
sg17
I24
sg18
g19
sg20
S'100.200.1.61'
p1647
sg22
S'100.201.118.0_24'
p1648
sg24
g25
sg26
(lp1649
g14
ag15
ag17
ag18
ag20
ag22
ag24
ag10
ag8
ag16
ag12
asba(iProducts.DataCollector.plugins.DataMaps
ObjectMap
p1650
(dp1651
g8
g9
sg10
g11
sg12
S'100.201.91.0/24'
p1652
sg14
I0
sg15
I0
sg16
S''
sg17
I24
sg18
g19
sg20
S'100.200.1.61'
p1653
sg22
S'100.201.91.0_24'
p1654
sg24
g25
sg26
(lp1655
g14
ag15
ag17
ag18
ag20
ag22
ag24
ag10
ag8
ag16
ag12
asba(iProducts.DataCollector.plugins.DataMaps
ObjectMap
p1656
(dp1657
g8
g9
sg10
g11
sg12
S'100.201.154.0/24'
p1658
sg14
I0
sg15
I0
sg16
S''
sg17
I24
sg18
g19
sg20
S'100.200.1.61'
p1659
sg22
S'100.201.154.0_24'
p1660
sg24
g25
sg26
(lp1661
g14
ag15
ag17
ag18
ag20
ag22
ag24
ag10
ag8
ag16
ag12
asba(iProducts.DataCollector.plugins.DataMaps
ObjectMap
p1662
(dp1663
g8
g9
sg10
g11
sg12
S'100.201.173.0/24'
p1664
sg14
I0
sg15
I0
sg16
S''
sg17
I24
sg18
g19
sg20
S'100.200.1.61'
p1665
sg22
S'100.201.173.0_24'
p1666
sg24
g25
sg26
(lp1667
g14
ag15
ag17
ag18
ag20
ag22
ag24
ag10
ag8
ag16
ag12
asba(iProducts.DataCollector.plugins.DataMaps
ObjectMap
p1668
(dp1669
g8
g9
sg10
g11
sg12
S'100.201.161.0/24'
p1670
sg14
I0
sg15
I0
sg16
S''
sg17
I24
sg18
g19
sg20
S'100.200.1.61'
p1671
sg22
S'100.201.161.0_24'
p1672
sg24
g25
sg26
(lp1673
g14
ag15
ag17
ag18
ag20
ag22
ag24
ag10
ag8
ag16
ag12
asbasS'relname'
p1674
S'routes'
p1675
sg10
g11
sS'parentId'
p1676
S''
sba.