(lp1
(iProducts.DataCollector.plugins.DataMaps
ObjectMap
p2
(dp3
S'modname'
p4
S''
sS'compname'
p5
S''
sS'snmpOid'
p6
S'.1.3.6.1.4.1.9.12.3.1.3.1147'
p7
sS'setHWProductKey'
p8
(iProducts.DataCollector.plugins.DataMaps
MultiArgs
p9
(dp10
S'args'
p11
(g7
S'ciscoSystems'
p12
tp13
sbsS'setOSProductKey'
p14
S'Cisco n7000,'
p15
sS'classname'
p16
S''
sS'snmpDescr'
p17
S'Cisco NX-OS(tm) n7000, Software (n7000-s2-dk9), Version 6.1(3), RELEASE SOFTWARE Copyright (c) 2002-2012 by Cisco Systems, Inc. Compiled 2/15/2013 14:00:00'
p18
sS'_attrs'
p19
(lp20
g17
ag6
ag5
ag4
ag16
ag8
ag14
asba.