(lp1
(iProducts.DataCollector.plugins.DataMaps
RelationshipMap
p2
(dp3
S'maps'
p4
(lp5
(iProducts.DataCollector.plugins.DataMaps
ObjectMap
p6
(dp7
S'modname'
p8
S'Products.ZenModel.IpService'
p9
sS'compname'
p10
S'os'
p11
sS'setServiceClass'
p12
(dp13
S'protocol'
p14
S'tcp'
p15
sS'port'
p16
I4
ssg16
I4
sS'classname'
p17
S''
sS'discoveryAgent'
p18
S'zenoss.snmp.IpServiceMap'
p19
sS'ipaddresses'
p20
(lp21
S'0.0.0.179'
p22
aS'0.0.0.22'
p23
aS'0.0.0.23'
p24
aS'0.0.0.161'
p25
asg14
g15
sS'id'
p26
S'tcp_00004'
p27
sS'_attrs'
p28
(lp29
g10
ag8
ag17
ag26
ag20
ag14
ag16
ag12
ag18
asba(iProducts.DataCollector.plugins.DataMaps
ObjectMap
p30
(dp31
g8
g9
sg10
g11
sS'monitor'
p32
I00
sg12
(dp33
g14
S'udp'
p34
sg16
I1985
ssg16
I1985
sg17
S''
sg18
g19
sg20
(lp35
S'0.0.0.0'
p36
asg14
g34
sg26
S'udp_01985'
p37
sg28
(lp38
g10
ag8
ag17
ag26
ag20
ag14
ag16
ag32
ag12
ag18
asba(iProducts.DataCollector.plugins.DataMaps
ObjectMap
p39
(dp40
g8
g9
sg10
g11
sg32
I00
sg12
(dp41
g14
g34
sg16
I130
ssg16
I130
sg17
S''
sg18
g19
sg20
(lp42
S'127.0.0.1'
p43
asg14
g34
sg26
S'udp_00130'
p44
sg28
(lp45
g10
ag8
ag17
ag26
ag20
ag14
ag16
ag32
ag12
ag18
asba(iProducts.DataCollector.plugins.DataMaps
ObjectMap
p46
(dp47
g8
g9
sg10
g11
sg32
I00
sg12
(dp48
g14
g34
sg16
I161
ssg16
I161
sg17
S''
sg18
g19
sg20
(lp49
S'0.0.0.0'
p50
asg14
g34
sg26
S'udp_00161'
p51
sg28
(lp52
g10
ag8
ag17
ag26
ag20
ag14
ag16
ag32
ag12
ag18
asba(iProducts.DataCollector.plugins.DataMaps
ObjectMap
p53
(dp54
g8
g9
sg10
g11
sg32
I00
sg12
(dp55
g14
g34
sg16
I3200
ssg16
I3200
sg17
S''
sg18
g19
sg20
(lp56
S'192.168.50.21'
p57
asg14
g34
sg26
S'udp_03200'
p58
sg28
(lp59
g10
ag8
ag17
ag26
ag20
ag14
ag16
ag32
ag12
ag18
asba(iProducts.DataCollector.plugins.DataMaps
ObjectMap
p60
(dp61
g8
g9
sg10
g11
sg32
I00
sg12
(dp62
g14
g34
sg16
I123
ssg16
I123
sg17
S''
sg18
g19
sg20
(lp63
S'0.0.0.0'
p64
asg14
g34
sg26
S'udp_00123'
p65
sg28
(lp66
g10
ag8
ag17
ag26
ag20
ag14
ag16
ag32
ag12
ag18
asba(iProducts.DataCollector.plugins.DataMaps
ObjectMap
p67
(dp68
g8
g9
sg10
g11
sg32
I00
sg12
(dp69
g14
g34
sg16
I2029
ssg16
I2029
sg17
S''
sg18
g19
sg20
(lp70
S'0.0.0.0'
p71
asg14
g34
sg26
S'udp_02029'
p72
sg28
(lp73
g10
ag8
ag17
ag26
ag20
ag14
ag16
ag32
ag12
ag18
asbasS'relname'
p74
S'ipservices'
p75
sg10
g11
sS'parentId'
p76
S''
sba.