(lp1
(iProducts.DataCollector.plugins.DataMaps
ObjectMap
p2
(dp3
S'modname'
p4
S''
sS'compname'
p5
S''
sS'snmpSysName'
p6
S'dc02-n7k-agg2'
p7
sS'snmpOid'
p8
S'.1.3.6.1.4.1.9.12.3.1.3.1147'
p9
sS'snmpContact'
p10
S' '
sS'classname'
p11
S''
sS'snmpDescr'
p12
S'Cisco NX-OS(tm) n7000, Software (n7000-s2-dk9), Version 6.1(3), RELEASE SOFTWARE Copyright (c) 2002-2012 by Cisco Systems, Inc. Compiled 2/15/2013 14:00:00'
p13
sS'snmpLocation'
p14
S' '
sS'_attrs'
p15
(lp16
g14
ag12
ag10
ag6
ag8
ag5
ag4
ag11
asba.