(lp1
(iProducts.DataCollector.plugins.DataMaps
ObjectMap
p2
(dp3
S'modname'
p4
S''
sS'compname'
p5
S''
sS'snmpOid'
p6
S'.1.3.6.1.4.1.8072.3.2.10'
p7
sS'setHWProductKey'
p8
(iProducts.DataCollector.plugins.DataMaps
MultiArgs
p9
(dp10
S'args'
p11
(g7
S'net snmp'
p12
tp13
sbsS'setOSProductKey'
p14
S'Linux 2.6.18-274.el5'
p15
sS'classname'
p16
S''
sS'snmpDescr'
p17
S'Linux n7ps01dimg001imon002.compliant.disney.private 2.6.18-274.el5 #1 SMP Fri Jul 22 04:43:29 EDT 2011 x86_64'
p18
sS'_attrs'
p19
(lp20
g17
ag6
ag5
ag4
ag16
ag8
ag14
asba.