(lp1
(iProducts.DataCollector.plugins.DataMaps
RelationshipMap
p2
(dp3
S'maps'
p4
(lp5
(iProducts.DataCollector.plugins.DataMaps
ObjectMap
p6
(dp7
S'modname'
p8
S'Products.ZenModel.IpRouteEntry'
p9
sS'compname'
p10
S'os'
p11
sS'setTarget'
p12
S'169.254.0.0/16'
p13
sS'metric1'
p14
I0
sS'setInterfaceIndex'
p15
I6
sS'classname'
p16
S''
sS'routemask'
p17
I16
sS'routeproto'
p18
S'local'
p19
sS'setNextHopIp'
p20
S'0.0.0.0'
p21
sS'id'
p22
S'169.254.0.0_16'
p23
sS'routetype'
p24
S'direct'
p25
sS'_attrs'
p26
(lp27
g14
ag15
ag17
ag18
ag20
ag22
ag24
ag10
ag8
ag16
ag12
asba(iProducts.DataCollector.plugins.DataMaps
ObjectMap
p28
(dp29
g8
g9
sg10
g11
sg12
S'172.16.0.0/12'
p30
sg14
I1
sg15
I6
sg16
S''
sg17
I12
sg18
g19
sg20
S'10.190.254.1'
p31
sg22
S'172.16.0.0_12'
p32
sg24
S'indirect'
p33
sg26
(lp34
g14
ag15
ag17
ag18
ag20
ag22
ag24
ag10
ag8
ag16
ag12
asba(iProducts.DataCollector.plugins.DataMaps
ObjectMap
p35
(dp36
g8
g9
sg10
g11
sg12
S'10.190.254.0/24'
p37
sg14
I0
sg15
I6
sg16
S''
sg17
I24
sg18
g19
sg20
S'0.0.0.0'
p38
sg22
S'10.190.254.0_24'
p39
sg24
g25
sg26
(lp40
g14
ag15
ag17
ag18
ag20
ag22
ag24
ag10
ag8
ag16
ag12
asba(iProducts.DataCollector.plugins.DataMaps
ObjectMap
p41
(dp42
g8
g9
sg10
g11
sg12
S'0.0.0.0/0'
p43
sg14
I1
sg15
I6
sg16
S''
sg17
I0
sg18
g19
sg20
S'10.190.254.10'
p44
sg22
S'0.0.0.0_0'
p45
sg24
g33
sg26
(lp46
g14
ag15
ag17
ag18
ag20
ag22
ag24
ag10
ag8
ag16
ag12
asba(iProducts.DataCollector.plugins.DataMaps
ObjectMap
p47
(dp48
g8
g9
sg10
g11
sg12
S'192.168.0.0/16'
p49
sg14
I1
sg15
I6
sg16
S''
sg17
I16
sg18
g19
sg20
S'10.190.254.1'
p50
sg22
S'192.168.0.0_16'
p51
sg24
g33
sg26
(lp52
g14
ag15
ag17
ag18
ag20
ag22
ag24
ag10
ag8
ag16
ag12
asba(iProducts.DataCollector.plugins.DataMaps
ObjectMap
p53
(dp54
g8
g9
sg10
g11
sg12
S'10.0.0.0/8'
p55
sg14
I1
sg15
I6
sg16
S''
sg17
I8
sg18
g19
sg20
S'10.190.254.1'
p56
sg22
S'10.0.0.0_8'
p57
sg24
g33
sg26
(lp58
g14
ag15
ag17
ag18
ag20
ag22
ag24
ag10
ag8
ag16
ag12
asbasS'relname'
p59
S'routes'
p60
sg10
g11
sS'parentId'
p61
S''
sba.