(lp1
(iProducts.DataCollector.plugins.DataMaps
RelationshipMap
p2
(dp3
S'maps'
p4
(lp5
(iProducts.DataCollector.plugins.DataMaps
ObjectMap
p6
(dp7
S'adminStatus'
p8
I1
sS'macaddress'
p9
S'D4:BE:D9:EF:66:E6'
p10
sS'modname'
p11
S'Products.ZenModel.IpInterface'
p12
sS'compname'
p13
S'os'
p14
sS'description'
p15
S''
sS'title'
p16
S'bond0'
p17
sS'operStatus'
p18
I1
sS'type'
p19
S'ethernetCsmacd_64'
p20
sS'mtu'
p21
I1500
sS'classname'
p22
S''
sS'duplex'
p23
I0
sS'interfaceName'
p24
g17
sS'ifindex'
p25
I6
sS'setIpAddresses'
p26
(lp27
S'10.190.254.222/24'
p28
asS'speed'
p29
L9999691L
sS'id'
p30
g17
sS'_attrs'
p31
(lp32
g8
ag9
ag15
ag18
ag29
ag21
ag23
aS'hcCounters'
p33
ag25
ag19
ag30
ag13
ag11
ag22
ag24
ag16
ag26
asba(iProducts.DataCollector.plugins.DataMaps
ObjectMap
p34
(dp35
g8
I1
sg9
S''
sg11
g12
sg13
g14
sg15
S''
sg16
S'lo'
p36
sg18
I1
sg19
S'ethernetCsmacd_64'
p37
sg21
I16436
sg22
S''
sg23
I0
sg24
g36
sg25
I1
sg26
(lp38
S'127.0.0.1/8'
p39
asg29
L1000000365L
sg30
g36
sg31
(lp40
g8
ag9
ag15
ag18
ag29
ag21
ag23
ag33
ag25
ag19
ag30
ag13
ag11
ag22
ag24
ag16
ag26
asba(iProducts.DataCollector.plugins.DataMaps
ObjectMap
p41
(dp42
g8
I1
sg9
S'D4:BE:D9:EF:66:E6'
p43
sg11
g12
sg13
g14
sg15
S''
sg16
S'eth1'
p44
sg18
I1
sg19
S'ethernetCsmacd_64'
p45
sg21
I1500
sg22
S''
sg23
I3
sg24
g44
sg25
I3
sg26
(lp46
sg29
L1000000106L
sg30
g44
sg31
(lp47
g8
ag9
ag15
ag18
ag29
ag21
ag23
ag33
ag25
ag19
ag30
ag13
ag11
ag22
ag24
ag16
ag26
asba(iProducts.DataCollector.plugins.DataMaps
ObjectMap
p48
(dp49
g8
I1
sg9
S'D4:BE:D9:EF:66:E6'
p50
sg11
g12
sg13
g14
sg15
S''
sg16
S'eth0'
p51
sg18
I1
sg19
S'ethernetCsmacd_64'
p52
sg21
I1500
sg22
S''
sg23
I3
sg24
g51
sg25
I2
sg26
(lp53
sg29
L1000000143L
sg30
g51
sg31
(lp54
g8
ag9
ag15
ag18
ag29
ag21
ag23
ag33
ag25
ag19
ag30
ag13
ag11
ag22
ag24
ag16
ag26
asba(iProducts.DataCollector.plugins.DataMaps
ObjectMap
p55
(dp56
g8
I2
sg9
S'D4:BE:D9:EF:66:EC'
p57
sg11
g12
sg13
g14
sg15
S''
sg16
S'eth3'
p58
sg18
I2
sg19
S'ethernetCsmacd_64'
p59
sg21
I1500
sg22
S''
sg23
I2
sg24
g58
sg25
I5
sg26
(lp60
sg29
L660L
sg30
g58
sg31
(lp61
g8
ag9
ag15
ag18
ag29
ag21
ag23
ag33
ag25
ag19
ag30
ag13
ag11
ag22
ag24
ag16
ag26
asba(iProducts.DataCollector.plugins.DataMaps
ObjectMap
p62
(dp63
g8
I2
sg9
S'D4:BE:D9:EF:66:EA'
p64
sg11
g12
sg13
g14
sg15
S''
sg16
S'eth2'
p65
sg18
I2
sg19
S'ethernetCsmacd_64'
p66
sg21
I1500
sg22
S''
sg23
I2
sg24
g65
sg25
I4
sg26
(lp67
sg29
L288L
sg30
g65
sg31
(lp68
g8
ag9
ag15
ag18
ag29
ag21
ag23
ag33
ag25
ag19
ag30
ag13
ag11
ag22
ag24
ag16
ag26
asbasS'relname'
p69
S'interfaces'
p70
sg13
g14
sS'parentId'
p71
S''
sba.