(lp1
(iProducts.DataCollector.plugins.DataMaps
RelationshipMap
p2
(dp3
S'maps'
p4
(lp5
(iProducts.DataCollector.plugins.DataMaps
ObjectMap
p6
(dp7
S'setOSProcessClass'
p8
S'/Processes/Zenoss/osProcessClasses/zenprocess'
p9
sS'compname'
p10
S'os'
p11
sS'modname'
p12
S'Products.ZenModel.OSProcess'
p13
sS'classname'
p14
S''
sS'monitoredProcesses'
p15
(lp16
V/opt/zenoss/bin/python /opt/zenoss/Products/ZenRRD/zenprocess.py --configfile /opt/zenoss/etc/zenprocess.conf --cycle --daemon
p17
asS'displayName'
p18
g17
sS'id'
p19
S'zport_dmd_Processes_Zenoss_osProcessClasses_zenprocess_8a2f71c5592e558ac192918eddbbaa6e'
p20
sS'_attrs'
p21
(lp22
g8
ag18
ag19
ag15
ag10
ag12
ag14
asba(iProducts.DataCollector.plugins.DataMaps
ObjectMap
p23
(dp24
g8
S'/Processes/Zenoss/osProcessClasses/zencommand'
p25
sg10
g11
sg12
g13
sg14
S''
sg15
(lp26
V/opt/zenoss/bin/python /opt/zenoss/Products/ZenRRD/zencommand.py --configfile /opt/zenoss/etc/zencommand.conf --cycle --daemon
p27
asg18
g27
sg19
S'zport_dmd_Processes_Zenoss_osProcessClasses_zencommand_a040f0cd4cbadbaf75e395a9c164ccd6'
p28
sg21
(lp29
g8
ag18
ag19
ag15
ag10
ag12
ag14
asba(iProducts.DataCollector.plugins.DataMaps
ObjectMap
p30
(dp31
g8
S'/Processes/Zenoss/osProcessClasses/zentrap'
p32
sg10
g11
sg12
g13
sg14
S''
sg15
(lp33
V/opt/zenoss/bin/python /opt/zenoss/Products/ZenEvents/zentrap.py --configfile /opt/zenoss/etc/zentrap.conf --cycle --daemon --useFileDescriptor=5
p34
asg18
Vzentrap
p35
sg19
S'zport_dmd_Processes_Zenoss_osProcessClasses_zentrap_256ac450e5339441c9e52e8105040fca'
p36
sg21
(lp37
g8
ag18
ag19
ag15
ag10
ag12
ag14
asba(iProducts.DataCollector.plugins.DataMaps
ObjectMap
p38
(dp39
g8
S'/Processes/Zenoss/osProcessClasses/zeneventd'
p40
sg10
g11
sg12
g13
sg14
S''
sg15
(lp41
V/opt/zenoss/bin/python /opt/zenoss/Products/ZenEvents/zeneventd.py --configfile /opt/zenoss/etc/zeneventd.conf --cycle --daemon
p42
aV/opt/zenoss/bin/python /opt/zenoss/Products/ZenEvents/zeneventd.py --configfile /opt/zenoss/etc/zeneventd.conf --cycle --daemon
p43
aV/opt/zenoss/bin/python /opt/zenoss/Products/ZenEvents/zeneventd.py --configfile /opt/zenoss/etc/zeneventd.conf --cycle --daemon
p44
asg18
g42
sg19
S'zport_dmd_Processes_Zenoss_osProcessClasses_zeneventd_7edcd92cd5c3453e6d8c8d14bd9775cc'
p45
sg21
(lp46
g8
ag18
ag19
ag15
ag10
ag12
ag14
asba(iProducts.DataCollector.plugins.DataMaps
ObjectMap
p47
(dp48
g8
S'/Processes/Zenoss/osProcessClasses/zenhub'
p49
sg10
g11
sg12
g13
sg14
S''
sg15
(lp50
V/opt/zenoss/bin/python /opt/zenoss/ZenPacks/ZenPacks.zenoss.DistributedCollector-2.4.8-py2.7.egg/ZenPacks/zenoss/DistributedCollector/zenhub.py --confi
p51
asg18
g51
sg19
S'zport_dmd_Processes_Zenoss_osProcessClasses_zenhub_dc569bc9b831484c8df970c9119d4787'
p52
sg21
(lp53
g8
ag18
ag19
ag15
ag10
ag12
ag14
asba(iProducts.DataCollector.plugins.DataMaps
ObjectMap
p54
(dp55
g8
S'/Processes/Zenoss/osProcessClasses/zenjmx'
p56
sg10
g11
sg12
g13
sg14
S''
sg15
(lp57
V/opt/zenoss/bin/python /opt/zenoss/ZenPacks/ZenPacks.zenoss.ZenJMX-3.7.2-py2.7.egg/ZenPacks/zenoss/ZenJMX/zenjmx.py --configfile /opt/zenoss/etc/zenjmx
p58
asg18
g58
sg19
S'zport_dmd_Processes_Zenoss_osProcessClasses_zenjmx_ed74276c04287a81a2836ce334838a8e'
p59
sg21
(lp60
g8
ag18
ag19
ag15
ag10
ag12
ag14
asba(iProducts.DataCollector.plugins.DataMaps
ObjectMap
p61
(dp62
g8
g56
sg10
g11
sg12
g13
sg14
S''
sg15
(lp63
Vjava -server -Xmx512m -jar /opt/zenoss/ZenPacks/ZenPacks.zenoss.ZenJMX-3.7.2-py2.7.egg/ZenPacks/zenoss/ZenJMX/lib/zenjmx.jar --config
p64
asg18
g64
sg19
S'zport_dmd_Processes_Zenoss_osProcessClasses_zenjmx_5d157c83872878ed8850c6689a940604'
p65
sg21
(lp66
g8
ag18
ag19
ag15
ag10
ag12
ag14
asba(iProducts.DataCollector.plugins.DataMaps
ObjectMap
p67
(dp68
g8
S'/Processes/Zenoss/osProcessClasses/zeneventserver'
p69
sg10
g11
sg12
g13
sg14
S''
sg15
(lp70
Vjava -server -XX:+HeapDumpOnOutOfMemoryError -DZENOSS_COMMAND=zeneventserver -DZENHOME=/opt/zenoss -Djetty.home=/opt/zenoss -Djetty.l
p71
asg18
g71
sg19
S'zport_dmd_Processes_Zenoss_osProcessClasses_zeneventserver_0bc2b48ccc8f2428e4a65f98b7bbbd5f'
p72
sg21
(lp73
g8
ag18
ag19
ag15
ag10
ag12
ag14
asba(iProducts.DataCollector.plugins.DataMaps
ObjectMap
p74
(dp75
g8
S'/Processes/Zenoss/osProcessClasses/zenactiond'
p76
sg10
g11
sg12
g13
sg14
S''
sg15
(lp77
V/opt/zenoss/bin/python /opt/zenoss/Products/ZenEvents/zenactiond.py --configfile /opt/zenoss/etc/zenactiond.conf --cycle --daemon
p78
asg18
g78
sg19
S'zport_dmd_Processes_Zenoss_osProcessClasses_zenactiond_836eb4ede1ab974bbd1bd5996d9abee4'
p79
sg21
(lp80
g8
ag18
ag19
ag15
ag10
ag12
ag14
asba(iProducts.DataCollector.plugins.DataMaps
ObjectMap
p81
(dp82
g8
S'/Processes/Zenoss/osProcessClasses/zenping'
p83
sg10
g11
sg12
g13
sg14
S''
sg15
(lp84
V/opt/zenoss/bin/python /opt/zenoss/Products/ZenStatus/zenping.py --configfile /opt/zenoss/etc/zenping.conf --cycle --daemon
p85
asg18
g85
sg19
S'zport_dmd_Processes_Zenoss_osProcessClasses_zenping_be9787dfab21687ca2aa26d9700463c9'
p86
sg21
(lp87
g8
ag18
ag19
ag15
ag10
ag12
ag14
asba(iProducts.DataCollector.plugins.DataMaps
ObjectMap
p88
(dp89
g8
S'/Processes/Zenoss/osProcessClasses/zensyslog'
p90
sg10
g11
sg12
g13
sg14
S''
sg15
(lp91
V/opt/zenoss/bin/python /opt/zenoss/Products/ZenEvents/zensyslog.py --configfile /opt/zenoss/etc/zensyslog.conf --cycle --daemon --useFileDescriptor=4
p92
asg18
Vzensyslog
p93
sg19
S'zport_dmd_Processes_Zenoss_osProcessClasses_zensyslog_dd68370f68436d17eac55d62c368b59f'
p94
sg21
(lp95
g8
ag18
ag19
ag15
ag10
ag12
ag14
asba(iProducts.DataCollector.plugins.DataMaps
ObjectMap
p96
(dp97
g8
S'/Processes/Zenoss/osProcessClasses/Zope'
p98
sg10
g11
sg12
g13
sg14
S''
sg15
(lp99
V/opt/zenoss/bin/python /opt/zenoss/zopehome/runzope -C /opt/zenoss/etc/zope/zope15.conf
p100
asg18
g100
sg19
S'zport_dmd_Processes_Zenoss_osProcessClasses_Zope_7748c6b47746fdb8a3e72144d9de2375'
p101
sg21
(lp102
g8
ag18
ag19
ag15
ag10
ag12
ag14
asba(iProducts.DataCollector.plugins.DataMaps
ObjectMap
p103
(dp104
g8
g98
sg10
g11
sg12
g13
sg14
S''
sg15
(lp105
V/opt/zenoss/bin/python /opt/zenoss/zopehome/runzope -C /opt/zenoss/etc/zope/zope1.conf
p106
asg18
g106
sg19
S'zport_dmd_Processes_Zenoss_osProcessClasses_Zope_d5092831c5a94a080eb770bfc41253ea'
p107
sg21
(lp108
g8
ag18
ag19
ag15
ag10
ag12
ag14
asba(iProducts.DataCollector.plugins.DataMaps
ObjectMap
p109
(dp110
g8
g98
sg10
g11
sg12
g13
sg14
S''
sg15
(lp111
V/opt/zenoss/bin/python /opt/zenoss/zopehome/runzope -C /opt/zenoss/etc/zope/zope14.conf
p112
asg18
g112
sg19
S'zport_dmd_Processes_Zenoss_osProcessClasses_Zope_198141a2b3eb577d909d78dfac9cdfe1'
p113
sg21
(lp114
g8
ag18
ag19
ag15
ag10
ag12
ag14
asba(iProducts.DataCollector.plugins.DataMaps
ObjectMap
p115
(dp116
g8
g98
sg10
g11
sg12
g13
sg14
S''
sg15
(lp117
V/opt/zenoss/bin/python /opt/zenoss/zopehome/runzope -C /opt/zenoss/etc/zope/zope18.conf
p118
asg18
g118
sg19
S'zport_dmd_Processes_Zenoss_osProcessClasses_Zope_bc6039e0e35b887137e4ac5c4d8d5cfa'
p119
sg21
(lp120
g8
ag18
ag19
ag15
ag10
ag12
ag14
asba(iProducts.DataCollector.plugins.DataMaps
ObjectMap
p121
(dp122
g8
g98
sg10
g11
sg12
g13
sg14
S''
sg15
(lp123
V/opt/zenoss/bin/python /opt/zenoss/zopehome/runzope -C /opt/zenoss/etc/zope/zope9.conf
p124
asg18
g124
sg19
S'zport_dmd_Processes_Zenoss_osProcessClasses_Zope_f683046b7dca6180057409a0b419608e'
p125
sg21
(lp126
g8
ag18
ag19
ag15
ag10
ag12
ag14
asba(iProducts.DataCollector.plugins.DataMaps
ObjectMap
p127
(dp128
g8
g98
sg10
g11
sg12
g13
sg14
S''
sg15
(lp129
V/opt/zenoss/bin/python /opt/zenoss/zopehome/runzope -C /opt/zenoss/etc/zope/zope20.conf
p130
asg18
g130
sg19
S'zport_dmd_Processes_Zenoss_osProcessClasses_Zope_bbfef6aa23962c1c96d3eb8888e168d2'
p131
sg21
(lp132
g8
ag18
ag19
ag15
ag10
ag12
ag14
asba(iProducts.DataCollector.plugins.DataMaps
ObjectMap
p133
(dp134
g8
g98
sg10
g11
sg12
g13
sg14
S''
sg15
(lp135
V/opt/zenoss/bin/python /opt/zenoss/zopehome/runzope -C /opt/zenoss/etc/zope/zope19.conf
p136
asg18
g136
sg19
S'zport_dmd_Processes_Zenoss_osProcessClasses_Zope_c4c1e1f0f8c8293b965da6af82fefba3'
p137
sg21
(lp138
g8
ag18
ag19
ag15
ag10
ag12
ag14
asba(iProducts.DataCollector.plugins.DataMaps
ObjectMap
p139
(dp140
g8
g98
sg10
g11
sg12
g13
sg14
S''
sg15
(lp141
V/opt/zenoss/bin/python /opt/zenoss/zopehome/runzope -C /opt/zenoss/etc/zope/zope6.conf
p142
asg18
g142
sg19
S'zport_dmd_Processes_Zenoss_osProcessClasses_Zope_7779925e9a1432e0fad598f66d1a9146'
p143
sg21
(lp144
g8
ag18
ag19
ag15
ag10
ag12
ag14
asba(iProducts.DataCollector.plugins.DataMaps
ObjectMap
p145
(dp146
g8
g98
sg10
g11
sg12
g13
sg14
S''
sg15
(lp147
V/opt/zenoss/bin/python /opt/zenoss/zopehome/runzope -C /opt/zenoss/etc/zope/zope7.conf
p148
asg18
g148
sg19
S'zport_dmd_Processes_Zenoss_osProcessClasses_Zope_71ae8fc0bb912d495951200dc72bc553'
p149
sg21
(lp150
g8
ag18
ag19
ag15
ag10
ag12
ag14
asba(iProducts.DataCollector.plugins.DataMaps
ObjectMap
p151
(dp152
g8
g98
sg10
g11
sg12
g13
sg14
S''
sg15
(lp153
V/opt/zenoss/bin/python /opt/zenoss/zopehome/runzope -C /opt/zenoss/etc/zope/zope12.conf
p154
asg18
g154
sg19
S'zport_dmd_Processes_Zenoss_osProcessClasses_Zope_a0205dc5ec3c71f8d605fe9b1d410009'
p155
sg21
(lp156
g8
ag18
ag19
ag15
ag10
ag12
ag14
asba(iProducts.DataCollector.plugins.DataMaps
ObjectMap
p157
(dp158
g8
g98
sg10
g11
sg12
g13
sg14
S''
sg15
(lp159
V/opt/zenoss/bin/python /opt/zenoss/zopehome/runzope -C /opt/zenoss/etc/zope/zope11.conf
p160
asg18
g160
sg19
S'zport_dmd_Processes_Zenoss_osProcessClasses_Zope_b6cc3093e54d4995774bd2ba20f073b9'
p161
sg21
(lp162
g8
ag18
ag19
ag15
ag10
ag12
ag14
asba(iProducts.DataCollector.plugins.DataMaps
ObjectMap
p163
(dp164
g8
g98
sg10
g11
sg12
g13
sg14
S''
sg15
(lp165
V/opt/zenoss/bin/python /opt/zenoss/zopehome/runzope -C /opt/zenoss/etc/zope/zope4.conf
p166
asg18
g166
sg19
S'zport_dmd_Processes_Zenoss_osProcessClasses_Zope_466e63c9c392038f20f2310a604fbf49'
p167
sg21
(lp168
g8
ag18
ag19
ag15
ag10
ag12
ag14
asba(iProducts.DataCollector.plugins.DataMaps
ObjectMap
p169
(dp170
g8
g98
sg10
g11
sg12
g13
sg14
S''
sg15
(lp171
V/opt/zenoss/bin/python /opt/zenoss/zopehome/runzope -C /opt/zenoss/etc/zope/zope5.conf
p172
asg18
g172
sg19
S'zport_dmd_Processes_Zenoss_osProcessClasses_Zope_a6dc67d6f89bc064bfba61b1d6de7d39'
p173
sg21
(lp174
g8
ag18
ag19
ag15
ag10
ag12
ag14
asba(iProducts.DataCollector.plugins.DataMaps
ObjectMap
p175
(dp176
g8
g98
sg10
g11
sg12
g13
sg14
S''
sg15
(lp177
V/opt/zenoss/bin/python /opt/zenoss/zopehome/runzope -C /opt/zenoss/etc/zope/zope10.conf
p178
asg18
g178
sg19
S'zport_dmd_Processes_Zenoss_osProcessClasses_Zope_88a726743b5ae5cb53618041855f8d08'
p179
sg21
(lp180
g8
ag18
ag19
ag15
ag10
ag12
ag14
asba(iProducts.DataCollector.plugins.DataMaps
ObjectMap
p181
(dp182
g8
g98
sg10
g11
sg12
g13
sg14
S''
sg15
(lp183
V/opt/zenoss/bin/python /opt/zenoss/zopehome/runzope -C /opt/zenoss/etc/zope/zope8.conf
p184
asg18
g184
sg19
S'zport_dmd_Processes_Zenoss_osProcessClasses_Zope_71627e059b5645557dd113d8247e0fd3'
p185
sg21
(lp186
g8
ag18
ag19
ag15
ag10
ag12
ag14
asba(iProducts.DataCollector.plugins.DataMaps
ObjectMap
p187
(dp188
g8
g98
sg10
g11
sg12
g13
sg14
S''
sg15
(lp189
V/opt/zenoss/bin/python /opt/zenoss/zopehome/runzope -C /opt/zenoss/etc/zope/zope17.conf
p190
asg18
g190
sg19
S'zport_dmd_Processes_Zenoss_osProcessClasses_Zope_4d55a209faebc03c7b69851c80adf6d3'
p191
sg21
(lp192
g8
ag18
ag19
ag15
ag10
ag12
ag14
asba(iProducts.DataCollector.plugins.DataMaps
ObjectMap
p193
(dp194
g8
g98
sg10
g11
sg12
g13
sg14
S''
sg15
(lp195
V/opt/zenoss/bin/python /opt/zenoss/zopehome/runzope -C /opt/zenoss/etc/zope/zope2.conf
p196
asg18
g196
sg19
S'zport_dmd_Processes_Zenoss_osProcessClasses_Zope_fd51bfd6d53af3343dc2c2e2c7ddee60'
p197
sg21
(lp198
g8
ag18
ag19
ag15
ag10
ag12
ag14
asba(iProducts.DataCollector.plugins.DataMaps
ObjectMap
p199
(dp200
g8
g98
sg10
g11
sg12
g13
sg14
S''
sg15
(lp201
V/opt/zenoss/bin/python /opt/zenoss/zopehome/runzope -C /opt/zenoss/etc/zope/zope3.conf
p202
asg18
g202
sg19
S'zport_dmd_Processes_Zenoss_osProcessClasses_Zope_54270b4b4661ae29b88f446a39c0bfed'
p203
sg21
(lp204
g8
ag18
ag19
ag15
ag10
ag12
ag14
asba(iProducts.DataCollector.plugins.DataMaps
ObjectMap
p205
(dp206
g8
g98
sg10
g11
sg12
g13
sg14
S''
sg15
(lp207
V/opt/zenoss/bin/python /opt/zenoss/zopehome/runzope -C /opt/zenoss/etc/zope/zope16.conf
p208
asg18
g208
sg19
S'zport_dmd_Processes_Zenoss_osProcessClasses_Zope_73dea0f26d65271fccf3681889fdc101'
p209
sg21
(lp210
g8
ag18
ag19
ag15
ag10
ag12
ag14
asba(iProducts.DataCollector.plugins.DataMaps
ObjectMap
p211
(dp212
g8
S'/Processes/Zenoss/osProcessClasses/zenperfsnmp'
p213
sg10
g11
sg12
g13
sg14
S''
sg15
(lp214
V/opt/zenoss/bin/python /opt/zenoss/Products/ZenRRD/zenperfsnmp.py --configfile /opt/zenoss/etc/zenperfsnmp.conf --cycle --daemon
p215
asg18
g215
sg19
S'zport_dmd_Processes_Zenoss_osProcessClasses_zenperfsnmp_fe4ade2de554c00daf98b01e84e46bf3'
p216
sg21
(lp217
g8
ag18
ag19
ag15
ag10
ag12
ag14
asba(iProducts.DataCollector.plugins.DataMaps
ObjectMap
p218
(dp219
g8
S'/Processes/Zenoss/osProcessClasses/zenjobs'
p220
sg10
g11
sg12
g13
sg14
S''
sg15
(lp221
V/opt/zenoss/bin/python /opt/zenoss/Products/Jobber/zenjobs.py --configfile /opt/zenoss/etc/zenjobs.conf --cycle --daemon
p222
asg18
g222
sg19
S'zport_dmd_Processes_Zenoss_osProcessClasses_zenjobs_dbf7f446dfc0d9f771fc06a69791610c'
p223
sg21
(lp224
g8
ag18
ag19
ag15
ag10
ag12
ag14
asba(iProducts.DataCollector.plugins.DataMaps
ObjectMap
p225
(dp226
g8
S'/Processes/Zenoss/osProcessClasses/zenstatus'
p227
sg10
g11
sg12
g13
sg14
S''
sg15
(lp228
V/opt/zenoss/bin/python /opt/zenoss/Products/ZenStatus/zenstatus.py --configfile /opt/zenoss/etc/zenstatus.conf --cycle --daemon
p229
asg18
g229
sg19
S'zport_dmd_Processes_Zenoss_osProcessClasses_zenstatus_d62bdc7d2f88501ebd2953efab19ee45'
p230
sg21
(lp231
g8
ag18
ag19
ag15
ag10
ag12
ag14
asba(iProducts.DataCollector.plugins.DataMaps
ObjectMap
p232
(dp233
g8
S'/Processes/Zenoss/osProcessClasses/zenmodeler'
p234
sg10
g11
sg12
g13
sg14
S''
sg15
(lp235
V/opt/zenoss/bin/python /opt/zenoss/Products/DataCollector/zenmodeler.py --configfile /opt/zenoss/etc/zenmodeler.conf --cycle --daemon
p236
asg18
g236
sg19
S'zport_dmd_Processes_Zenoss_osProcessClasses_zenmodeler_5ad99739d0017ea408c1efebdbec4010'
p237
sg21
(lp238
g8
ag18
ag19
ag15
ag10
ag12
ag14
asbasS'relname'
p239
S'processes'
p240
sg10
g11
sS'parentId'
p241
S''
sba.