(lp1
(iProducts.DataCollector.plugins.DataMaps
RelationshipMap
p2
(dp3
S'maps'
p4
(lp5
(iProducts.DataCollector.plugins.DataMaps
ObjectMap
p6
(dp7
S'_type'
p8
S'.1.3.6.1.2.1.25.3.1.3'
p9
sS'compname'
p10
S'hw'
p11
sS'snmpindex'
p12
S'768'
p13
sS'_description'
p14
S'GenuineIntel: Intel(R) Xeon(R) CPU           X5647  @ 2.93GHz'
p15
sS'modname'
p16
S'Products.ZenModel.CPU'
p17
sS'setProductKey'
p18
(iProducts.DataCollector.plugins.DataMaps
MultiArgs
p19
(dp20
S'args'
p21
(g15
S'Intel'
p22
tp23
sbsS'classname'
p24
S''
sS'clockspeed'
p25
I2930
sS'id'
p26
S'0'
sS'_attrs'
p27
(lp28
g25
ag10
ag16
ag24
ag18
ag26
ag12
asba(iProducts.DataCollector.plugins.DataMaps
ObjectMap
p29
(dp30
g8
S'.1.3.6.1.2.1.25.3.1.3'
p31
sg10
g11
sg12
S'769'
p32
sg14
S'GenuineIntel: Intel(R) Xeon(R) CPU           X5647  @ 2.93GHz'
p33
sg16
g17
sg18
(iProducts.DataCollector.plugins.DataMaps
MultiArgs
p34
(dp35
g21
(g33
g22
tp36
sbsg24
S''
sg25
I2930
sg26
S'1'
sg27
(lp37
g25
ag10
ag16
ag24
ag18
ag26
ag12
asba(iProducts.DataCollector.plugins.DataMaps
ObjectMap
p38
(dp39
g8
S'.1.3.6.1.2.1.25.3.1.3'
p40
sg10
g11
sg12
S'775'
p41
sg14
S'GenuineIntel: Intel(R) Xeon(R) CPU           X5647  @ 2.93GHz'
p42
sg16
g17
sg18
(iProducts.DataCollector.plugins.DataMaps
MultiArgs
p43
(dp44
g21
(g42
g22
tp45
sbsg24
S''
sg25
I2930
sg26
S'2'
sg27
(lp46
g25
ag10
ag16
ag24
ag18
ag26
ag12
asba(iProducts.DataCollector.plugins.DataMaps
ObjectMap
p47
(dp48
g8
S'.1.3.6.1.2.1.25.3.1.3'
p49
sg10
g11
sg12
S'774'
p50
sg14
S'GenuineIntel: Intel(R) Xeon(R) CPU           X5647  @ 2.93GHz'
p51
sg16
g17
sg18
(iProducts.DataCollector.plugins.DataMaps
MultiArgs
p52
(dp53
g21
(g51
g22
tp54
sbsg24
S''
sg25
I2930
sg26
S'3'
sg27
(lp55
g25
ag10
ag16
ag24
ag18
ag26
ag12
asba(iProducts.DataCollector.plugins.DataMaps
ObjectMap
p56
(dp57
g8
S'.1.3.6.1.2.1.25.3.1.3'
p58
sg10
g11
sg12
S'777'
p59
sg14
S'GenuineIntel: Intel(R) Xeon(R) CPU           X5647  @ 2.93GHz'
p60
sg16
g17
sg18
(iProducts.DataCollector.plugins.DataMaps
MultiArgs
p61
(dp62
g21
(g60
g22
tp63
sbsg24
S''
sg25
I2930
sg26
S'4'
sg27
(lp64
g25
ag10
ag16
ag24
ag18
ag26
ag12
asba(iProducts.DataCollector.plugins.DataMaps
ObjectMap
p65
(dp66
g8
S'.1.3.6.1.2.1.25.3.1.3'
p67
sg10
g11
sg12
S'776'
p68
sg14
S'GenuineIntel: Intel(R) Xeon(R) CPU           X5647  @ 2.93GHz'
p69
sg16
g17
sg18
(iProducts.DataCollector.plugins.DataMaps
MultiArgs
p70
(dp71
g21
(g69
g22
tp72
sbsg24
S''
sg25
I2930
sg26
S'5'
sg27
(lp73
g25
ag10
ag16
ag24
ag18
ag26
ag12
asba(iProducts.DataCollector.plugins.DataMaps
ObjectMap
p74
(dp75
g8
S'.1.3.6.1.2.1.25.3.1.3'
p76
sg10
g11
sg12
S'771'
p77
sg14
S'GenuineIntel: Intel(R) Xeon(R) CPU           X5647  @ 2.93GHz'
p78
sg16
g17
sg18
(iProducts.DataCollector.plugins.DataMaps
MultiArgs
p79
(dp80
g21
(g78
g22
tp81
sbsg24
S''
sg25
I2930
sg26
S'6'
sg27
(lp82
g25
ag10
ag16
ag24
ag18
ag26
ag12
asba(iProducts.DataCollector.plugins.DataMaps
ObjectMap
p83
(dp84
g8
S'.1.3.6.1.2.1.25.3.1.3'
p85
sg10
g11
sg12
S'770'
p86
sg14
S'GenuineIntel: Intel(R) Xeon(R) CPU           X5647  @ 2.93GHz'
p87
sg16
g17
sg18
(iProducts.DataCollector.plugins.DataMaps
MultiArgs
p88
(dp89
g21
(g87
g22
tp90
sbsg24
S''
sg25
I2930
sg26
S'7'
sg27
(lp91
g25
ag10
ag16
ag24
ag18
ag26
ag12
asba(iProducts.DataCollector.plugins.DataMaps
ObjectMap
p92
(dp93
g8
S'.1.3.6.1.2.1.25.3.1.3'
p94
sg10
g11
sg12
S'773'
p95
sg14
S'GenuineIntel: Intel(R) Xeon(R) CPU           X5647  @ 2.93GHz'
p96
sg16
g17
sg18
(iProducts.DataCollector.plugins.DataMaps
MultiArgs
p97
(dp98
g21
(g96
g22
tp99
sbsg24
S''
sg25
I2930
sg26
S'8'
sg27
(lp100
g25
ag10
ag16
ag24
ag18
ag26
ag12
asba(iProducts.DataCollector.plugins.DataMaps
ObjectMap
p101
(dp102
g8
S'.1.3.6.1.2.1.25.3.1.3'
p103
sg10
g11
sg12
S'772'
p104
sg14
S'GenuineIntel: Intel(R) Xeon(R) CPU           X5647  @ 2.93GHz'
p105
sg16
g17
sg18
(iProducts.DataCollector.plugins.DataMaps
MultiArgs
p106
(dp107
g21
(g105
g22
tp108
sbsg24
S''
sg25
I2930
sg26
S'9'
sg27
(lp109
g25
ag10
ag16
ag24
ag18
ag26
ag12
asba(iProducts.DataCollector.plugins.DataMaps
ObjectMap
p110
(dp111
g8
S'.1.3.6.1.2.1.25.3.1.3'
p112
sg10
g11
sg12
S'779'
p113
sg14
S'GenuineIntel: Intel(R) Xeon(R) CPU           X5647  @ 2.93GHz'
p114
sg16
g17
sg18
(iProducts.DataCollector.plugins.DataMaps
MultiArgs
p115
(dp116
g21
(g114
g22
tp117
sbsg24
S''
sg25
I2930
sg26
S'10'
p118
sg27
(lp119
g25
ag10
ag16
ag24
ag18
ag26
ag12
asba(iProducts.DataCollector.plugins.DataMaps
ObjectMap
p120
(dp121
g8
S'.1.3.6.1.2.1.25.3.1.3'
p122
sg10
g11
sg12
S'778'
p123
sg14
S'GenuineIntel: Intel(R) Xeon(R) CPU           X5647  @ 2.93GHz'
p124
sg16
g17
sg18
(iProducts.DataCollector.plugins.DataMaps
MultiArgs
p125
(dp126
g21
(g124
g22
tp127
sbsg24
S''
sg25
I2930
sg26
S'11'
p128
sg27
(lp129
g25
ag10
ag16
ag24
ag18
ag26
ag12
asba(iProducts.DataCollector.plugins.DataMaps
ObjectMap
p130
(dp131
g8
S'.1.3.6.1.2.1.25.3.1.3'
p132
sg10
g11
sg12
S'780'
p133
sg14
S'GenuineIntel: Intel(R) Xeon(R) CPU           X5647  @ 2.93GHz'
p134
sg16
g17
sg18
(iProducts.DataCollector.plugins.DataMaps
MultiArgs
p135
(dp136
g21
(g134
g22
tp137
sbsg24
S''
sg25
I2930
sg26
S'12'
p138
sg27
(lp139
g25
ag10
ag16
ag24
ag18
ag26
ag12
asba(iProducts.DataCollector.plugins.DataMaps
ObjectMap
p140
(dp141
g8
S'.1.3.6.1.2.1.25.3.1.3'
p142
sg10
g11
sg12
S'781'
p143
sg14
S'GenuineIntel: Intel(R) Xeon(R) CPU           X5647  @ 2.93GHz'
p144
sg16
g17
sg18
(iProducts.DataCollector.plugins.DataMaps
MultiArgs
p145
(dp146
g21
(g144
g22
tp147
sbsg24
S''
sg25
I2930
sg26
S'13'
p148
sg27
(lp149
g25
ag10
ag16
ag24
ag18
ag26
ag12
asba(iProducts.DataCollector.plugins.DataMaps
ObjectMap
p150
(dp151
g8
S'.1.3.6.1.2.1.25.3.1.3'
p152
sg10
g11
sg12
S'782'
p153
sg14
S'GenuineIntel: Intel(R) Xeon(R) CPU           X5647  @ 2.93GHz'
p154
sg16
g17
sg18
(iProducts.DataCollector.plugins.DataMaps
MultiArgs
p155
(dp156
g21
(g154
g22
tp157
sbsg24
S''
sg25
I2930
sg26
S'14'
p158
sg27
(lp159
g25
ag10
ag16
ag24
ag18
ag26
ag12
asba(iProducts.DataCollector.plugins.DataMaps
ObjectMap
p160
(dp161
g8
S'.1.3.6.1.2.1.25.3.1.3'
p162
sg10
g11
sg12
S'783'
p163
sg14
S'GenuineIntel: Intel(R) Xeon(R) CPU           X5647  @ 2.93GHz'
p164
sg16
g17
sg18
(iProducts.DataCollector.plugins.DataMaps
MultiArgs
p165
(dp166
g21
(g164
g22
tp167
sbsg24
S''
sg25
I2930
sg26
S'15'
p168
sg27
(lp169
g25
ag10
ag16
ag24
ag18
ag26
ag12
asbasS'relname'
p170
S'cpus'
p171
sg10
g11
sS'parentId'
p172
S''
sba.