(lp1
(iProducts.DataCollector.plugins.DataMaps
ObjectMap
p2
(dp3
S'modname'
p4
S''
sS'compname'
p5
S''
sS'snmpSysName'
p6
S'n7ps01dimg001imon002.compliant.disney.private'
p7
sS'snmpOid'
p8
S'.1.3.6.1.4.1.8072.3.2.10'
p9
sS'snmpContact'
p10
S'noc-alerts@playdom.com'
p11
sS'classname'
p12
S''
sS'snmpDescr'
p13
S'Linux n7ps01dimg001imon002.compliant.disney.private 2.6.18-274.el5 #1 SMP Fri Jul 22 04:43:29 EDT 2011 x86_64'
p14
sS'snmpLocation'
p15
S'Dallas'
p16
sS'_attrs'
p17
(lp18
g15
ag13
ag10
ag6
ag8
ag5
ag4
ag12
asba.