(lp1
(iProducts.DataCollector.plugins.DataMaps
ObjectMap
p2
(dp3
S'compname'
p4
S'os'
p5
sS'totalSwap'
p6
L154081943552L
sS'_attrs'
p7
(lp8
g6
ag4
asba(iProducts.DataCollector.plugins.DataMaps
ObjectMap
p9
(dp10
g4
S'hw'
p11
sS'totalMemory'
p12
L151983616000L
sg7
(lp13
g12
ag4
asba(iProducts.DataCollector.plugins.DataMaps
RelationshipMap
p14
(dp15
S'maps'
p16
(lp17
(iProducts.DataCollector.plugins.DataMaps
ObjectMap
p18
(dp19
S'modname'
p20
S'Products.ZenModel.FileSystem'
p21
sg4
g5
sS'snmpindex'
p22
I38
sS'totalBlocks'
p23
I18552687
sS'blockSize'
p24
I4096
sS'mount'
p25
S'/dev/shm'
p26
sS'title'
p27
g26
sS'snmpindex_dct'
p28
(dp29
S'1.3.6.1.4.1.2021.9.1'
p30
I8
ssS'classname'
p31
S''
sS'type'
p32
S'fixedDisk'
p33
sS'id'
p34
S'dev_shm'
p35
sg7
(lp36
g22
ag23
ag24
ag25
ag28
ag32
ag4
ag20
ag31
ag34
ag27
asba(iProducts.DataCollector.plugins.DataMaps
ObjectMap
p37
(dp38
g20
g21
sg4
g5
sg22
I31
sg23
I253934784
sg24
I4096
sg25
S'/'
sg27
S'/'
sg28
(dp39
g30
I1
ssg31
S''
sg32
g33
sg34
S'-'
sg7
(lp40
g22
ag23
ag24
ag25
ag28
ag32
ag4
ag20
ag31
ag34
ag27
asba(iProducts.DataCollector.plugins.DataMaps
ObjectMap
p41
(dp42
g20
g21
sg4
g5
sg22
I37
sg23
I101086
sg24
I1024
sg25
S'/boot'
p43
sg27
g43
sg28
(dp44
g30
I7
ssg31
S''
sg32
g33
sg34
S'boot'
p45
sg7
(lp46
g22
ag23
ag24
ag25
ag28
ag32
ag4
ag20
ag31
ag34
ag27
asba(iProducts.DataCollector.plugins.DataMaps
ObjectMap
p47
(dp48
g20
g21
sg4
g5
sg22
I36
sg23
I433553734
sg24
I4096
sg25
S'/opt/zenoss/perf'
p49
sg27
g49
sg28
(dp50
g30
I6
ssg31
S''
sg32
g33
sg34
S'opt_zenoss_perf'
p51
sg7
(lp52
g22
ag23
ag24
ag25
ag28
ag32
ag4
ag20
ag31
ag34
ag27
asba(iProducts.DataCollector.plugins.DataMaps
ObjectMap
p53
(dp54
g20
g21
sg4
g5
sg22
I35
sg23
I126967406
sg24
I4096
sg25
S'/opt/zenoss'
p55
sg27
g55
sg28
(dp56
g30
I5
ssg31
S''
sg32
g33
sg34
S'opt_zenoss'
p57
sg7
(lp58
g22
ag23
ag24
ag25
ag28
ag32
ag4
ag20
ag31
ag34
ag27
asbasS'relname'
p59
S'filesystems'
p60
sg4
g5
sS'parentId'
p61
S''
sba.