(lp1
(iProducts.DataCollector.plugins.DataMaps
RelationshipMap
p2
(dp3
S'maps'
p4
(lp5
(iProducts.DataCollector.plugins.DataMaps
ObjectMap
p6
(dp7
S'modname'
p8
S'Products.ZenModel.IpService'
p9
sS'compname'
p10
S'os'
p11
sS'setServiceClass'
p12
(dp13
S'protocol'
p14
S'tcp'
p15
sS'port'
p16
I8090
ssg16
I8090
sS'classname'
p17
S''
sS'discoveryAgent'
p18
S'zenoss.snmp.IpServiceMap'
p19
sS'ipaddresses'
p20
(lp21
S'0.0.0.0'
p22
asg14
g15
sS'id'
p23
S'tcp_08090'
p24
sS'_attrs'
p25
(lp26
g10
ag8
ag17
ag23
ag20
ag14
ag16
ag12
ag18
asba(iProducts.DataCollector.plugins.DataMaps
ObjectMap
p27
(dp28
g8
g9
sg10
g11
sg12
(dp29
g14
g15
sg16
I25
ssg16
I25
sg17
S''
sg18
g19
sg20
(lp30
S'127.0.0.1'
p31
asg14
g15
sg23
S'tcp_00025'
p32
sg25
(lp33
g10
ag8
ag17
ag23
ag20
ag14
ag16
ag12
ag18
asba(iProducts.DataCollector.plugins.DataMaps
ObjectMap
p34
(dp35
g8
g9
sg10
g11
sg12
(dp36
g14
g15
sg16
I111
ssg16
I111
sg17
S''
sg18
g19
sg20
(lp37
S'0.0.0.0'
p38
asg14
g15
sg23
S'tcp_00111'
p39
sg25
(lp40
g10
ag8
ag17
ag23
ag20
ag14
ag16
ag12
ag18
asba(iProducts.DataCollector.plugins.DataMaps
ObjectMap
p41
(dp42
g8
g9
sg10
g11
sg12
(dp43
g14
g15
sg16
I80
ssg16
I80
sg17
S''
sg18
g19
sg20
(lp44
S'0.0.0.0'
p45
asg14
g15
sg23
S'tcp_00080'
p46
sg25
(lp47
g10
ag8
ag17
ag23
ag20
ag14
ag16
ag12
ag18
asba(iProducts.DataCollector.plugins.DataMaps
ObjectMap
p48
(dp49
g8
g9
sg10
g11
sg12
(dp50
g14
g15
sg16
I5672
ssg16
I5672
sg17
S''
sg18
g19
sg20
(lp51
S'0.0.0.0'
p52
asg14
g15
sg23
S'tcp_05672'
p53
sg25
(lp54
g10
ag8
ag17
ag23
ag20
ag14
ag16
ag12
ag18
asba(iProducts.DataCollector.plugins.DataMaps
ObjectMap
p55
(dp56
g8
g9
sg10
g11
sg12
(dp57
g14
g15
sg16
I199
ssg16
I199
sg17
S''
sg18
g19
sg20
(lp58
S'127.0.0.1'
p59
asg14
g15
sg23
S'tcp_00199'
p60
sg25
(lp61
g10
ag8
ag17
ag23
ag20
ag14
ag16
ag12
ag18
asba(iProducts.DataCollector.plugins.DataMaps
ObjectMap
p62
(dp63
g8
g9
sg10
g11
sg12
(dp64
g14
g15
sg16
I638
ssg16
I638
sg17
S''
sg18
g19
sg20
(lp65
S'0.0.0.0'
p66
asg14
g15
sg23
S'tcp_00638'
p67
sg25
(lp68
g10
ag8
ag17
ag23
ag20
ag14
ag16
ag12
ag18
asba(iProducts.DataCollector.plugins.DataMaps
ObjectMap
p69
(dp70
g8
g9
sg10
g11
sg12
(dp71
g14
g15
sg16
I4369
ssg16
I4369
sg17
S''
sg18
g19
sg20
(lp72
S'0.0.0.0'
p73
asg14
g15
sg23
S'tcp_04369'
p74
sg25
(lp75
g10
ag8
ag17
ag23
ag20
ag14
ag16
ag12
ag18
asba(iProducts.DataCollector.plugins.DataMaps
ObjectMap
p76
(dp77
g8
g9
sg10
g11
sg12
(dp78
g14
g15
sg16
I8080
ssg16
I8080
sg17
S''
sg18
g19
sg20
(lp79
S'0.0.0.0'
p80
asg14
g15
sg23
S'tcp_08080'
p81
sg25
(lp82
g10
ag8
ag17
ag23
ag20
ag14
ag16
ag12
ag18
asba(iProducts.DataCollector.plugins.DataMaps
ObjectMap
p83
(dp84
g8
g9
sg10
g11
sg12
(dp85
g14
g15
sg16
I1311
ssg16
I1311
sg17
S''
sg18
g19
sg20
(lp86
S'0.0.0.0'
p87
asg14
g15
sg23
S'tcp_01311'
p88
sg25
(lp89
g10
ag8
ag17
ag23
ag20
ag14
ag16
ag12
ag18
asba(iProducts.DataCollector.plugins.DataMaps
ObjectMap
p90
(dp91
g8
g9
sg10
g11
sg12
(dp92
g14
g15
sg16
I8081
ssg16
I8081
sg17
S''
sg18
g19
sg20
(lp93
S'0.0.0.0'
p94
asg14
g15
sg23
S'tcp_08081'
p95
sg25
(lp96
g10
ag8
ag17
ag23
ag20
ag14
ag16
ag12
ag18
asba(iProducts.DataCollector.plugins.DataMaps
ObjectMap
p97
(dp98
g8
g9
sg10
g11
sg12
(dp99
g14
g15
sg16
I8084
ssg16
I8084
sg17
S''
sg18
g19
sg20
(lp100
S'0.0.0.0'
p101
asg14
g15
sg23
S'tcp_08084'
p102
sg25
(lp103
g10
ag8
ag17
ag23
ag20
ag14
ag16
ag12
ag18
asba(iProducts.DataCollector.plugins.DataMaps
ObjectMap
p104
(dp105
g8
g9
sg10
g11
sg12
(dp106
g14
g15
sg16
I443
ssg16
I443
sg17
S''
sg18
g19
sg20
(lp107
S'0.0.0.0'
p108
asg14
g15
sg23
S'tcp_00443'
p109
sg25
(lp110
g10
ag8
ag17
ag23
ag20
ag14
ag16
ag12
ag18
asba(iProducts.DataCollector.plugins.DataMaps
ObjectMap
p111
(dp112
g8
g9
sg10
g11
sg12
(dp113
g14
g15
sg16
I22
ssg16
I22
sg17
S''
sg18
g19
sg20
(lp114
S'0.0.0.0'
p115
asg14
g15
sg23
S'tcp_00022'
p116
sg25
(lp117
g10
ag8
ag17
ag23
ag20
ag14
ag16
ag12
ag18
asba(iProducts.DataCollector.plugins.DataMaps
ObjectMap
p118
(dp119
g8
g9
sg10
g11
sS'monitor'
p120
I00
sg12
(dp121
g14
S'udp'
p122
sg16
I514
ssg16
I514
sg17
S''
sg18
g19
sg20
(lp123
S'0.0.0.0'
p124
asg14
g122
sg23
S'udp_00514'
p125
sg25
(lp126
g10
ag8
ag17
ag23
ag20
ag14
ag16
ag120
ag12
ag18
asba(iProducts.DataCollector.plugins.DataMaps
ObjectMap
p127
(dp128
g8
g9
sg10
g11
sg120
I00
sg12
(dp129
g14
g122
sg16
I111
ssg16
I111
sg17
S''
sg18
g19
sg20
(lp130
S'0.0.0.0'
p131
asg14
g122
sg23
S'udp_00111'
p132
sg25
(lp133
g10
ag8
ag17
ag23
ag20
ag14
ag16
ag120
ag12
ag18
asba(iProducts.DataCollector.plugins.DataMaps
ObjectMap
p134
(dp135
g8
g9
sg10
g11
sg120
I00
sg12
(dp136
g14
g122
sg16
I632
ssg16
I632
sg17
S''
sg18
g19
sg20
(lp137
S'0.0.0.0'
p138
asg14
g122
sg23
S'udp_00632'
p139
sg25
(lp140
g10
ag8
ag17
ag23
ag20
ag14
ag16
ag120
ag12
ag18
asba(iProducts.DataCollector.plugins.DataMaps
ObjectMap
p141
(dp142
g8
g9
sg10
g11
sg120
I00
sg12
(dp143
g14
g122
sg16
I635
ssg16
I635
sg17
S''
sg18
g19
sg20
(lp144
S'0.0.0.0'
p145
asg14
g122
sg23
S'udp_00635'
p146
sg25
(lp147
g10
ag8
ag17
ag23
ag20
ag14
ag16
ag120
ag12
ag18
asba(iProducts.DataCollector.plugins.DataMaps
ObjectMap
p148
(dp149
g8
g9
sg10
g11
sg120
I00
sg12
(dp150
g14
g122
sg16
I161
ssg16
I161
sg17
S''
sg18
g19
sg20
(lp151
S'0.0.0.0'
p152
asg14
g122
sg23
S'udp_00161'
p153
sg25
(lp154
g10
ag8
ag17
ag23
ag20
ag14
ag16
ag120
ag12
ag18
asba(iProducts.DataCollector.plugins.DataMaps
ObjectMap
p155
(dp156
g8
g9
sg10
g11
sg120
I00
sg12
(dp157
g14
g122
sg16
I162
ssg16
I162
sg17
S''
sg18
g19
sg20
(lp158
S'0.0.0.0'
p159
asg14
g122
sg23
S'udp_00162'
p160
sg25
(lp161
g10
ag8
ag17
ag23
ag20
ag14
ag16
ag120
ag12
ag18
asbasS'relname'
p162
S'ipservices'
p163
sg10
g11
sS'parentId'
p164
S''
sba.